ARM GAS  C:\Users\12548\AppData\Local\Temp\ccwCHJyL.s 			page 1


   1              		.syntax unified
   2              		.cpu cortex-m0plus
   3              		.fpu softvfp
   4              		.eabi_attribute 20, 1
   5              		.eabi_attribute 21, 1
   6              		.eabi_attribute 23, 3
   7              		.eabi_attribute 24, 1
   8              		.eabi_attribute 25, 1
   9              		.eabi_attribute 26, 1
  10              		.eabi_attribute 30, 1
  11              		.eabi_attribute 34, 0
  12              		.eabi_attribute 18, 4
  13              		.thumb
  14              		.syntax unified
  15              		.file	"main.c"
  16              		.text
  17              	.Ltext0:
  18              		.cfi_sections	.debug_frame
  19              		.global	__aeabi_i2d
  20              		.global	__aeabi_dmul
  21              		.global	__aeabi_d2f
  22              		.section	.text.GetTemperature,"ax",%progbits
  23              		.align	2
  24              		.global	GetTemperature
  25              		.code	16
  26              		.thumb_func
  27              		.type	GetTemperature, %function
  28              	GetTemperature:
  29              	.LFB34:
  30              		.file 1 "main.c"
   1:main.c        **** /* ========================================
   2:main.c        ****  * Simple Fun Temperature Programs
   3:main.c        ****  * 简单有趣的温度程序 - 稳定版
   4:main.c        ****  * ========================================
   5:main.c        **** */
   6:main.c        **** 
   7:main.c        **** #include "project.h"
   8:main.c        **** #include <stdio.h>
   9:main.c        **** 
  10:main.c        **** /* Global variables */
  11:main.c        **** float last_temp = 25.0;
  12:main.c        **** float max_temp = 0;
  13:main.c        **** float min_temp = 50;
  14:main.c        **** 
  15:main.c        **** /* Simple temperature read function */
  16:main.c        **** float GetTemperature(void) {
  31              		.loc 1 16 0
  32              		.cfi_startproc
  33              		@ args = 0, pretend = 0, frame = 0
  34              		@ frame_needed = 0, uses_anonymous_args = 0
  35 0000 70B5     		push	{r4, r5, r6, lr}
  36              		.cfi_def_cfa_offset 16
  37              		.cfi_offset 4, -16
  38              		.cfi_offset 5, -12
  39              		.cfi_offset 6, -8
  40              		.cfi_offset 14, -4
  17:main.c        ****     uint8 temp_lsb, temp_msb;
ARM GAS  C:\Users\12548\AppData\Local\Temp\ccwCHJyL.s 			page 2


  18:main.c        ****     int16 temp_raw;
  19:main.c        ****     float temperature;
  20:main.c        ****     
  21:main.c        ****     /* Reset pulse */
  22:main.c        ****     OneWire_Pin_Write(0);
  41              		.loc 1 22 0
  42 0002 0020     		movs	r0, #0
  43 0004 FFF7FEFF 		bl	OneWire_Pin_Write
  44              	.LVL0:
  23:main.c        ****     CyDelayUs(480);
  45              		.loc 1 23 0
  46 0008 F024     		movs	r4, #240
  47 000a 6400     		lsls	r4, r4, #1
  48 000c 2000     		movs	r0, r4
  49 000e FFF7FEFF 		bl	CyDelayUs
  50              	.LVL1:
  24:main.c        ****     OneWire_Pin_Write(1);
  51              		.loc 1 24 0
  52 0012 0120     		movs	r0, #1
  53 0014 FFF7FEFF 		bl	OneWire_Pin_Write
  54              	.LVL2:
  25:main.c        ****     CyDelayUs(480);
  55              		.loc 1 25 0
  56 0018 2000     		movs	r0, r4
  57 001a FFF7FEFF 		bl	CyDelayUs
  58              	.LVL3:
  59              	.LBB2:
  26:main.c        ****     
  27:main.c        ****     /* Skip ROM - 0xCC */
  28:main.c        ****     uint8 cmd = 0xCC;
  29:main.c        ****     for (int i = 0; i < 8; i++) {
  60              		.loc 1 29 0
  61 001e 0024     		movs	r4, #0
  62              	.LBE2:
  28:main.c        ****     for (int i = 0; i < 8; i++) {
  63              		.loc 1 28 0
  64 0020 CC25     		movs	r5, #204
  65              	.LBB3:
  66              		.loc 1 29 0
  67 0022 1CE0     		b	.L2
  68              	.LVL4:
  69              	.L5:
  30:main.c        ****         if (cmd & 0x01) {
  70              		.loc 1 30 0
  71 0024 EB07     		lsls	r3, r5, #31
  72 0026 0CD5     		bpl	.L3
  31:main.c        ****             OneWire_Pin_Write(0);
  73              		.loc 1 31 0
  74 0028 0020     		movs	r0, #0
  75 002a FFF7FEFF 		bl	OneWire_Pin_Write
  76              	.LVL5:
  32:main.c        ****             CyDelayUs(6);
  77              		.loc 1 32 0
  78 002e 0620     		movs	r0, #6
  79 0030 FFF7FEFF 		bl	CyDelayUs
  80              	.LVL6:
  33:main.c        ****             OneWire_Pin_Write(1);
ARM GAS  C:\Users\12548\AppData\Local\Temp\ccwCHJyL.s 			page 3


  81              		.loc 1 33 0
  82 0034 0120     		movs	r0, #1
  83 0036 FFF7FEFF 		bl	OneWire_Pin_Write
  84              	.LVL7:
  34:main.c        ****             CyDelayUs(64);
  85              		.loc 1 34 0
  86 003a 4020     		movs	r0, #64
  87 003c FFF7FEFF 		bl	CyDelayUs
  88              	.LVL8:
  89 0040 0BE0     		b	.L4
  90              	.L3:
  35:main.c        ****         } else {
  36:main.c        ****             OneWire_Pin_Write(0);
  91              		.loc 1 36 0
  92 0042 0020     		movs	r0, #0
  93 0044 FFF7FEFF 		bl	OneWire_Pin_Write
  94              	.LVL9:
  37:main.c        ****             CyDelayUs(60);
  95              		.loc 1 37 0
  96 0048 3C20     		movs	r0, #60
  97 004a FFF7FEFF 		bl	CyDelayUs
  98              	.LVL10:
  38:main.c        ****             OneWire_Pin_Write(1);
  99              		.loc 1 38 0
 100 004e 0120     		movs	r0, #1
 101 0050 FFF7FEFF 		bl	OneWire_Pin_Write
 102              	.LVL11:
  39:main.c        ****             CyDelayUs(10);
 103              		.loc 1 39 0
 104 0054 0A20     		movs	r0, #10
 105 0056 FFF7FEFF 		bl	CyDelayUs
 106              	.LVL12:
 107              	.L4:
  40:main.c        ****         }
  41:main.c        ****         cmd >>= 1;
 108              		.loc 1 41 0 discriminator 2
 109 005a 6D08     		lsrs	r5, r5, #1
 110              	.LVL13:
  29:main.c        ****         if (cmd & 0x01) {
 111              		.loc 1 29 0 discriminator 2
 112 005c 0134     		adds	r4, r4, #1
 113              	.LVL14:
 114              	.L2:
  29:main.c        ****         if (cmd & 0x01) {
 115              		.loc 1 29 0 is_stmt 0 discriminator 1
 116 005e 072C     		cmp	r4, #7
 117 0060 E0DD     		ble	.L5
 118 0062 0024     		movs	r4, #0
 119              	.LVL15:
 120 0064 4425     		movs	r5, #68
 121              	.LVL16:
 122 0066 1CE0     		b	.L6
 123              	.LVL17:
 124              	.L9:
 125              	.LBE3:
 126              	.LBB4:
  42:main.c        ****     }
ARM GAS  C:\Users\12548\AppData\Local\Temp\ccwCHJyL.s 			page 4


  43:main.c        ****     
  44:main.c        ****     /* Convert T - 0x44 */
  45:main.c        ****     cmd = 0x44;
  46:main.c        ****     for (int i = 0; i < 8; i++) {
  47:main.c        ****         if (cmd & 0x01) {
 127              		.loc 1 47 0 is_stmt 1
 128 0068 EB07     		lsls	r3, r5, #31
 129 006a 0CD5     		bpl	.L7
  48:main.c        ****             OneWire_Pin_Write(0);
 130              		.loc 1 48 0
 131 006c 0020     		movs	r0, #0
 132 006e FFF7FEFF 		bl	OneWire_Pin_Write
 133              	.LVL18:
  49:main.c        ****             CyDelayUs(6);
 134              		.loc 1 49 0
 135 0072 0620     		movs	r0, #6
 136 0074 FFF7FEFF 		bl	CyDelayUs
 137              	.LVL19:
  50:main.c        ****             OneWire_Pin_Write(1);
 138              		.loc 1 50 0
 139 0078 0120     		movs	r0, #1
 140 007a FFF7FEFF 		bl	OneWire_Pin_Write
 141              	.LVL20:
  51:main.c        ****             CyDelayUs(64);
 142              		.loc 1 51 0
 143 007e 4020     		movs	r0, #64
 144 0080 FFF7FEFF 		bl	CyDelayUs
 145              	.LVL21:
 146 0084 0BE0     		b	.L8
 147              	.L7:
  52:main.c        ****         } else {
  53:main.c        ****             OneWire_Pin_Write(0);
 148              		.loc 1 53 0
 149 0086 0020     		movs	r0, #0
 150 0088 FFF7FEFF 		bl	OneWire_Pin_Write
 151              	.LVL22:
  54:main.c        ****             CyDelayUs(60);
 152              		.loc 1 54 0
 153 008c 3C20     		movs	r0, #60
 154 008e FFF7FEFF 		bl	CyDelayUs
 155              	.LVL23:
  55:main.c        ****             OneWire_Pin_Write(1);
 156              		.loc 1 55 0
 157 0092 0120     		movs	r0, #1
 158 0094 FFF7FEFF 		bl	OneWire_Pin_Write
 159              	.LVL24:
  56:main.c        ****             CyDelayUs(10);
 160              		.loc 1 56 0
 161 0098 0A20     		movs	r0, #10
 162 009a FFF7FEFF 		bl	CyDelayUs
 163              	.LVL25:
 164              	.L8:
  57:main.c        ****         }
  58:main.c        ****         cmd >>= 1;
 165              		.loc 1 58 0 discriminator 2
 166 009e 6D08     		lsrs	r5, r5, #1
 167              	.LVL26:
ARM GAS  C:\Users\12548\AppData\Local\Temp\ccwCHJyL.s 			page 5


  46:main.c        ****         if (cmd & 0x01) {
 168              		.loc 1 46 0 discriminator 2
 169 00a0 0134     		adds	r4, r4, #1
 170              	.LVL27:
 171              	.L6:
  46:main.c        ****         if (cmd & 0x01) {
 172              		.loc 1 46 0 is_stmt 0 discriminator 1
 173 00a2 072C     		cmp	r4, #7
 174 00a4 E0DD     		ble	.L9
 175              	.LBE4:
  59:main.c        ****     }
  60:main.c        ****     
  61:main.c        ****     /* Wait for conversion */
  62:main.c        ****     CyDelay(750);
 176              		.loc 1 62 0 is_stmt 1
 177 00a6 4E48     		ldr	r0, .L24
 178 00a8 FFF7FEFF 		bl	CyDelay
 179              	.LVL28:
  63:main.c        ****     
  64:main.c        ****     /* Reset again */
  65:main.c        ****     OneWire_Pin_Write(0);
 180              		.loc 1 65 0
 181 00ac 0020     		movs	r0, #0
 182 00ae FFF7FEFF 		bl	OneWire_Pin_Write
 183              	.LVL29:
  66:main.c        ****     CyDelayUs(480);
 184              		.loc 1 66 0
 185 00b2 F024     		movs	r4, #240
 186              	.LVL30:
 187 00b4 6400     		lsls	r4, r4, #1
 188 00b6 2000     		movs	r0, r4
 189 00b8 FFF7FEFF 		bl	CyDelayUs
 190              	.LVL31:
  67:main.c        ****     OneWire_Pin_Write(1);
 191              		.loc 1 67 0
 192 00bc 0120     		movs	r0, #1
 193 00be FFF7FEFF 		bl	OneWire_Pin_Write
 194              	.LVL32:
  68:main.c        ****     CyDelayUs(480);
 195              		.loc 1 68 0
 196 00c2 2000     		movs	r0, r4
 197 00c4 FFF7FEFF 		bl	CyDelayUs
 198              	.LVL33:
 199              	.LBB5:
  69:main.c        ****     
  70:main.c        ****     /* Skip ROM - 0xCC */
  71:main.c        ****     cmd = 0xCC;
  72:main.c        ****     for (int i = 0; i < 8; i++) {
 200              		.loc 1 72 0
 201 00c8 0024     		movs	r4, #0
 202              	.LBE5:
  71:main.c        ****     for (int i = 0; i < 8; i++) {
 203              		.loc 1 71 0
 204 00ca CC25     		movs	r5, #204
 205              	.LBB6:
 206              		.loc 1 72 0
 207 00cc 1CE0     		b	.L10
ARM GAS  C:\Users\12548\AppData\Local\Temp\ccwCHJyL.s 			page 6


 208              	.LVL34:
 209              	.L13:
  73:main.c        ****         if (cmd & 0x01) {
 210              		.loc 1 73 0
 211 00ce EB07     		lsls	r3, r5, #31
 212 00d0 0CD5     		bpl	.L11
  74:main.c        ****             OneWire_Pin_Write(0);
 213              		.loc 1 74 0
 214 00d2 0020     		movs	r0, #0
 215 00d4 FFF7FEFF 		bl	OneWire_Pin_Write
 216              	.LVL35:
  75:main.c        ****             CyDelayUs(6);
 217              		.loc 1 75 0
 218 00d8 0620     		movs	r0, #6
 219 00da FFF7FEFF 		bl	CyDelayUs
 220              	.LVL36:
  76:main.c        ****             OneWire_Pin_Write(1);
 221              		.loc 1 76 0
 222 00de 0120     		movs	r0, #1
 223 00e0 FFF7FEFF 		bl	OneWire_Pin_Write
 224              	.LVL37:
  77:main.c        ****             CyDelayUs(64);
 225              		.loc 1 77 0
 226 00e4 4020     		movs	r0, #64
 227 00e6 FFF7FEFF 		bl	CyDelayUs
 228              	.LVL38:
 229 00ea 0BE0     		b	.L12
 230              	.L11:
  78:main.c        ****         } else {
  79:main.c        ****             OneWire_Pin_Write(0);
 231              		.loc 1 79 0
 232 00ec 0020     		movs	r0, #0
 233 00ee FFF7FEFF 		bl	OneWire_Pin_Write
 234              	.LVL39:
  80:main.c        ****             CyDelayUs(60);
 235              		.loc 1 80 0
 236 00f2 3C20     		movs	r0, #60
 237 00f4 FFF7FEFF 		bl	CyDelayUs
 238              	.LVL40:
  81:main.c        ****             OneWire_Pin_Write(1);
 239              		.loc 1 81 0
 240 00f8 0120     		movs	r0, #1
 241 00fa FFF7FEFF 		bl	OneWire_Pin_Write
 242              	.LVL41:
  82:main.c        ****             CyDelayUs(10);
 243              		.loc 1 82 0
 244 00fe 0A20     		movs	r0, #10
 245 0100 FFF7FEFF 		bl	CyDelayUs
 246              	.LVL42:
 247              	.L12:
  83:main.c        ****         }
  84:main.c        ****         cmd >>= 1;
 248              		.loc 1 84 0 discriminator 2
 249 0104 6D08     		lsrs	r5, r5, #1
 250              	.LVL43:
  72:main.c        ****         if (cmd & 0x01) {
 251              		.loc 1 72 0 discriminator 2
ARM GAS  C:\Users\12548\AppData\Local\Temp\ccwCHJyL.s 			page 7


 252 0106 0134     		adds	r4, r4, #1
 253              	.LVL44:
 254              	.L10:
  72:main.c        ****         if (cmd & 0x01) {
 255              		.loc 1 72 0 is_stmt 0 discriminator 1
 256 0108 072C     		cmp	r4, #7
 257 010a E0DD     		ble	.L13
 258 010c 0024     		movs	r4, #0
 259              	.LVL45:
 260 010e BE25     		movs	r5, #190
 261              	.LVL46:
 262 0110 1CE0     		b	.L14
 263              	.LVL47:
 264              	.L17:
 265              	.LBE6:
 266              	.LBB7:
  85:main.c        ****     }
  86:main.c        ****     
  87:main.c        ****     /* Read Scratchpad - 0xBE */
  88:main.c        ****     cmd = 0xBE;
  89:main.c        ****     for (int i = 0; i < 8; i++) {
  90:main.c        ****         if (cmd & 0x01) {
 267              		.loc 1 90 0 is_stmt 1
 268 0112 EB07     		lsls	r3, r5, #31
 269 0114 0CD5     		bpl	.L15
  91:main.c        ****             OneWire_Pin_Write(0);
 270              		.loc 1 91 0
 271 0116 0020     		movs	r0, #0
 272 0118 FFF7FEFF 		bl	OneWire_Pin_Write
 273              	.LVL48:
  92:main.c        ****             CyDelayUs(6);
 274              		.loc 1 92 0
 275 011c 0620     		movs	r0, #6
 276 011e FFF7FEFF 		bl	CyDelayUs
 277              	.LVL49:
  93:main.c        ****             OneWire_Pin_Write(1);
 278              		.loc 1 93 0
 279 0122 0120     		movs	r0, #1
 280 0124 FFF7FEFF 		bl	OneWire_Pin_Write
 281              	.LVL50:
  94:main.c        ****             CyDelayUs(64);
 282              		.loc 1 94 0
 283 0128 4020     		movs	r0, #64
 284 012a FFF7FEFF 		bl	CyDelayUs
 285              	.LVL51:
 286 012e 0BE0     		b	.L16
 287              	.L15:
  95:main.c        ****         } else {
  96:main.c        ****             OneWire_Pin_Write(0);
 288              		.loc 1 96 0
 289 0130 0020     		movs	r0, #0
 290 0132 FFF7FEFF 		bl	OneWire_Pin_Write
 291              	.LVL52:
  97:main.c        ****             CyDelayUs(60);
 292              		.loc 1 97 0
 293 0136 3C20     		movs	r0, #60
 294 0138 FFF7FEFF 		bl	CyDelayUs
ARM GAS  C:\Users\12548\AppData\Local\Temp\ccwCHJyL.s 			page 8


 295              	.LVL53:
  98:main.c        ****             OneWire_Pin_Write(1);
 296              		.loc 1 98 0
 297 013c 0120     		movs	r0, #1
 298 013e FFF7FEFF 		bl	OneWire_Pin_Write
 299              	.LVL54:
  99:main.c        ****             CyDelayUs(10);
 300              		.loc 1 99 0
 301 0142 0A20     		movs	r0, #10
 302 0144 FFF7FEFF 		bl	CyDelayUs
 303              	.LVL55:
 304              	.L16:
 100:main.c        ****         }
 101:main.c        ****         cmd >>= 1;
 305              		.loc 1 101 0 discriminator 2
 306 0148 6D08     		lsrs	r5, r5, #1
 307              	.LVL56:
  89:main.c        ****         if (cmd & 0x01) {
 308              		.loc 1 89 0 discriminator 2
 309 014a 0134     		adds	r4, r4, #1
 310              	.LVL57:
 311              	.L14:
  89:main.c        ****         if (cmd & 0x01) {
 312              		.loc 1 89 0 is_stmt 0 discriminator 1
 313 014c 072C     		cmp	r4, #7
 314 014e E0DD     		ble	.L17
 315 0150 0026     		movs	r6, #0
 316 0152 0025     		movs	r5, #0
 317              	.LVL58:
 318 0154 18E0     		b	.L18
 319              	.LVL59:
 320              	.L20:
 321              	.LBE7:
 322              	.LBB8:
 102:main.c        ****     }
 103:main.c        ****     
 104:main.c        ****     /* Read LSB */
 105:main.c        ****     temp_lsb = 0;
 106:main.c        ****     for (int i = 0; i < 8; i++) {
 107:main.c        ****         temp_lsb >>= 1;
 323              		.loc 1 107 0 is_stmt 1
 324 0156 6D08     		lsrs	r5, r5, #1
 325              	.LVL60:
 108:main.c        ****         OneWire_Pin_Write(0);
 326              		.loc 1 108 0
 327 0158 0020     		movs	r0, #0
 328 015a FFF7FEFF 		bl	OneWire_Pin_Write
 329              	.LVL61:
 109:main.c        ****         CyDelayUs(3);
 330              		.loc 1 109 0
 331 015e 0320     		movs	r0, #3
 332 0160 FFF7FEFF 		bl	CyDelayUs
 333              	.LVL62:
 110:main.c        ****         OneWire_Pin_Write(1);
 334              		.loc 1 110 0
 335 0164 0120     		movs	r0, #1
 336 0166 FFF7FEFF 		bl	OneWire_Pin_Write
ARM GAS  C:\Users\12548\AppData\Local\Temp\ccwCHJyL.s 			page 9


 337              	.LVL63:
 111:main.c        ****         CyDelayUs(12);
 338              		.loc 1 111 0
 339 016a 0C20     		movs	r0, #12
 340 016c FFF7FEFF 		bl	CyDelayUs
 341              	.LVL64:
 112:main.c        ****         if (OneWire_Pin_Read()) {
 342              		.loc 1 112 0
 343 0170 FFF7FEFF 		bl	OneWire_Pin_Read
 344              	.LVL65:
 345 0174 0028     		cmp	r0, #0
 346 0176 03D0     		beq	.L19
 113:main.c        ****             temp_lsb |= 0x80;
 347              		.loc 1 113 0
 348 0178 8024     		movs	r4, #128
 349 017a 6442     		rsbs	r4, r4, #0
 350 017c 2543     		orrs	r5, r4
 351              	.LVL66:
 352 017e EDB2     		uxtb	r5, r5
 353              	.LVL67:
 354              	.L19:
 114:main.c        ****         }
 115:main.c        ****         CyDelayUs(50);
 355              		.loc 1 115 0 discriminator 2
 356 0180 3220     		movs	r0, #50
 357 0182 FFF7FEFF 		bl	CyDelayUs
 358              	.LVL68:
 106:main.c        ****         temp_lsb >>= 1;
 359              		.loc 1 106 0 discriminator 2
 360 0186 0136     		adds	r6, r6, #1
 361              	.LVL69:
 362              	.L18:
 106:main.c        ****         temp_lsb >>= 1;
 363              		.loc 1 106 0 is_stmt 0 discriminator 1
 364 0188 072E     		cmp	r6, #7
 365 018a E4DD     		ble	.L20
 366 018c 0026     		movs	r6, #0
 367              	.LVL70:
 368 018e 0024     		movs	r4, #0
 369 0190 18E0     		b	.L21
 370              	.LVL71:
 371              	.L23:
 372              	.LBE8:
 373              	.LBB9:
 116:main.c        ****     }
 117:main.c        ****     
 118:main.c        ****     /* Read MSB */
 119:main.c        ****     temp_msb = 0;
 120:main.c        ****     for (int i = 0; i < 8; i++) {
 121:main.c        ****         temp_msb >>= 1;
 374              		.loc 1 121 0 is_stmt 1
 375 0192 6408     		lsrs	r4, r4, #1
 376              	.LVL72:
 122:main.c        ****         OneWire_Pin_Write(0);
 377              		.loc 1 122 0
 378 0194 0020     		movs	r0, #0
 379 0196 FFF7FEFF 		bl	OneWire_Pin_Write
ARM GAS  C:\Users\12548\AppData\Local\Temp\ccwCHJyL.s 			page 10


 380              	.LVL73:
 123:main.c        ****         CyDelayUs(3);
 381              		.loc 1 123 0
 382 019a 0320     		movs	r0, #3
 383 019c FFF7FEFF 		bl	CyDelayUs
 384              	.LVL74:
 124:main.c        ****         OneWire_Pin_Write(1);
 385              		.loc 1 124 0
 386 01a0 0120     		movs	r0, #1
 387 01a2 FFF7FEFF 		bl	OneWire_Pin_Write
 388              	.LVL75:
 125:main.c        ****         CyDelayUs(12);
 389              		.loc 1 125 0
 390 01a6 0C20     		movs	r0, #12
 391 01a8 FFF7FEFF 		bl	CyDelayUs
 392              	.LVL76:
 126:main.c        ****         if (OneWire_Pin_Read()) {
 393              		.loc 1 126 0
 394 01ac FFF7FEFF 		bl	OneWire_Pin_Read
 395              	.LVL77:
 396 01b0 0028     		cmp	r0, #0
 397 01b2 03D0     		beq	.L22
 127:main.c        ****             temp_msb |= 0x80;
 398              		.loc 1 127 0
 399 01b4 8020     		movs	r0, #128
 400 01b6 4042     		rsbs	r0, r0, #0
 401 01b8 0443     		orrs	r4, r0
 402              	.LVL78:
 403 01ba E4B2     		uxtb	r4, r4
 404              	.LVL79:
 405              	.L22:
 128:main.c        ****         }
 129:main.c        ****         CyDelayUs(50);
 406              		.loc 1 129 0 discriminator 2
 407 01bc 3220     		movs	r0, #50
 408 01be FFF7FEFF 		bl	CyDelayUs
 409              	.LVL80:
 120:main.c        ****         temp_msb >>= 1;
 410              		.loc 1 120 0 discriminator 2
 411 01c2 0136     		adds	r6, r6, #1
 412              	.LVL81:
 413              	.L21:
 120:main.c        ****         temp_msb >>= 1;
 414              		.loc 1 120 0 is_stmt 0 discriminator 1
 415 01c4 072E     		cmp	r6, #7
 416 01c6 E4DD     		ble	.L23
 417              	.LBE9:
 130:main.c        ****     }
 131:main.c        ****     
 132:main.c        ****     /* Calculate temperature */
 133:main.c        ****     temp_raw = (temp_msb << 8) | temp_lsb;
 418              		.loc 1 133 0 is_stmt 1
 419 01c8 2402     		lsls	r4, r4, #8
 420              	.LVL82:
 421 01ca 2C43     		orrs	r4, r5
 422 01cc 20B2     		sxth	r0, r4
 423              	.LVL83:
ARM GAS  C:\Users\12548\AppData\Local\Temp\ccwCHJyL.s 			page 11


 134:main.c        ****     temperature = temp_raw * 0.0625;
 424              		.loc 1 134 0
 425 01ce FFF7FEFF 		bl	__aeabi_i2d
 426              	.LVL84:
 427 01d2 0022     		movs	r2, #0
 428 01d4 034B     		ldr	r3, .L24+4
 429 01d6 FFF7FEFF 		bl	__aeabi_dmul
 430              	.LVL85:
 431 01da FFF7FEFF 		bl	__aeabi_d2f
 432              	.LVL86:
 135:main.c        ****     
 136:main.c        ****     return temperature;
 137:main.c        **** }
 433              		.loc 1 137 0
 434              		@ sp needed
 435              	.LVL87:
 436              	.LVL88:
 437              	.LVL89:
 438 01de 70BD     		pop	{r4, r5, r6, pc}
 439              	.L25:
 440              		.align	2
 441              	.L24:
 442 01e0 EE020000 		.word	750
 443 01e4 0000B03F 		.word	1068498944
 444              		.cfi_endproc
 445              	.LFE34:
 446              		.size	GetTemperature, .-GetTemperature
 447              		.global	__aeabi_f2iz
 448              		.global	__aeabi_i2f
 449              		.global	__aeabi_fsub
 450              		.global	__aeabi_fmul
 451              		.global	__aeabi_f2d
 452              		.global	__aeabi_dsub
 453              		.global	__aeabi_dadd
 454              		.global	__aeabi_d2iz
 455              		.global	__aeabi_fcmplt
 456              		.section	.text.TemperatureBarGraph,"ax",%progbits
 457              		.align	2
 458              		.global	TemperatureBarGraph
 459              		.code	16
 460              		.thumb_func
 461              		.type	TemperatureBarGraph, %function
 462              	TemperatureBarGraph:
 463              	.LFB35:
 138:main.c        **** 
 139:main.c        **** /* Program 1: Temperature Bar Graph */
 140:main.c        **** void TemperatureBarGraph(void) {
 464              		.loc 1 140 0
 465              		.cfi_startproc
 466              		@ args = 0, pretend = 0, frame = 80
 467              		@ frame_needed = 0, uses_anonymous_args = 0
 468 0000 70B5     		push	{r4, r5, r6, lr}
 469              		.cfi_def_cfa_offset 16
 470              		.cfi_offset 4, -16
 471              		.cfi_offset 5, -12
 472              		.cfi_offset 6, -8
 473              		.cfi_offset 14, -4
ARM GAS  C:\Users\12548\AppData\Local\Temp\ccwCHJyL.s 			page 12


 474 0002 94B0     		sub	sp, sp, #80
 475              		.cfi_def_cfa_offset 96
 141:main.c        ****     float temp;
 142:main.c        ****     char buffer[80];
 143:main.c        ****     
 144:main.c        ****     UART_UartPutString("\r\n==== Temperature Bar Graph ====\r\n");
 476              		.loc 1 144 0
 477 0004 3F48     		ldr	r0, .L51
 478 0006 FFF7FEFF 		bl	UART_UartPutString
 479              	.LVL90:
 145:main.c        ****     UART_UartPutString("Visual temperature display\r\n");
 480              		.loc 1 145 0
 481 000a 3F48     		ldr	r0, .L51+4
 482 000c FFF7FEFF 		bl	UART_UartPutString
 483              	.LVL91:
 146:main.c        ****     UART_UartPutString("Press any key to stop...\r\n\r\n");
 484              		.loc 1 146 0
 485 0010 3E48     		ldr	r0, .L51+8
 486 0012 FFF7FEFF 		bl	UART_UartPutString
 487              	.LVL92:
 147:main.c        ****     
 148:main.c        ****     UART_UartPutString("15C         25C         35C\r\n");
 488              		.loc 1 148 0
 489 0016 3E48     		ldr	r0, .L51+12
 490 0018 FFF7FEFF 		bl	UART_UartPutString
 491              	.LVL93:
 149:main.c        ****     UART_UartPutString(" |           |           |\r\n");
 492              		.loc 1 149 0
 493 001c 3D48     		ldr	r0, .L51+16
 494 001e FFF7FEFF 		bl	UART_UartPutString
 495              	.LVL94:
 150:main.c        ****     
 151:main.c        ****     while(UART_SpiUartGetRxBufferSize() == 0) {
 496              		.loc 1 151 0
 497 0022 61E0     		b	.L27
 498              	.L40:
 499              	.LBB10:
 152:main.c        ****         temp = GetTemperature();
 500              		.loc 1 152 0
 501 0024 FFF7FEFF 		bl	GetTemperature
 502              	.LVL95:
 503 0028 051C     		adds	r5, r0, #0
 504              	.LVL96:
 153:main.c        ****         
 154:main.c        ****         /* Display temperature */
 155:main.c        ****         int temp_int = (int)temp;
 505              		.loc 1 155 0
 506 002a FFF7FEFF 		bl	__aeabi_f2iz
 507              	.LVL97:
 508 002e 0400     		movs	r4, r0
 509              	.LVL98:
 156:main.c        ****         int temp_dec = (int)((temp - temp_int) * 10);
 510              		.loc 1 156 0
 511 0030 FFF7FEFF 		bl	__aeabi_i2f
 512              	.LVL99:
 513 0034 011C     		adds	r1, r0, #0
 514 0036 281C     		adds	r0, r5, #0
ARM GAS  C:\Users\12548\AppData\Local\Temp\ccwCHJyL.s 			page 13


 515 0038 FFF7FEFF 		bl	__aeabi_fsub
 516              	.LVL100:
 517 003c 3649     		ldr	r1, .L51+20
 518 003e FFF7FEFF 		bl	__aeabi_fmul
 519              	.LVL101:
 520 0042 FFF7FEFF 		bl	__aeabi_f2iz
 521              	.LVL102:
 522 0046 0300     		movs	r3, r0
 523              	.LVL103:
 157:main.c        ****         sprintf(buffer, "\r%d.%d C ", temp_int, temp_dec);
 524              		.loc 1 157 0
 525 0048 2200     		movs	r2, r4
 526 004a 3449     		ldr	r1, .L51+24
 527 004c 6846     		mov	r0, sp
 528              	.LVL104:
 529 004e FFF7FEFF 		bl	sprintf
 530              	.LVL105:
 158:main.c        ****         UART_UartPutString(buffer);
 531              		.loc 1 158 0
 532 0052 6846     		mov	r0, sp
 533 0054 FFF7FEFF 		bl	UART_UartPutString
 534              	.LVL106:
 159:main.c        ****         
 160:main.c        ****         /* Draw bar */
 161:main.c        ****         int bar_length = (int)((temp - 15.0) * 2);
 535              		.loc 1 161 0
 536 0058 281C     		adds	r0, r5, #0
 537 005a FFF7FEFF 		bl	__aeabi_f2d
 538              	.LVL107:
 539 005e 0022     		movs	r2, #0
 540 0060 2F4B     		ldr	r3, .L51+28
 541 0062 FFF7FEFF 		bl	__aeabi_dsub
 542              	.LVL108:
 543 0066 0200     		movs	r2, r0
 544 0068 0B00     		movs	r3, r1
 545 006a FFF7FEFF 		bl	__aeabi_dadd
 546              	.LVL109:
 547 006e FFF7FEFF 		bl	__aeabi_d2iz
 548              	.LVL110:
 549 0072 061E     		subs	r6, r0, #0
 550              	.LVL111:
 162:main.c        ****         if (bar_length < 0) bar_length = 0;
 551              		.loc 1 162 0
 552 0074 00DA     		bge	.L28
 553 0076 0026     		movs	r6, #0
 554              	.L28:
 555              	.LVL112:
 163:main.c        ****         if (bar_length > 40) bar_length = 40;
 556              		.loc 1 163 0
 557 0078 282E     		cmp	r6, #40
 558 007a 00DD     		ble	.L29
 559 007c 2826     		movs	r6, #40
 560              	.LVL113:
 561              	.L29:
 164:main.c        ****         
 165:main.c        ****         UART_UartPutString("[");
 562              		.loc 1 165 0
ARM GAS  C:\Users\12548\AppData\Local\Temp\ccwCHJyL.s 			page 14


 563 007e 2948     		ldr	r0, .L51+32
 564 0080 FFF7FEFF 		bl	UART_UartPutString
 565              	.LVL114:
 566              	.LBB11:
 166:main.c        ****         for (int i = 0; i < 40; i++) {
 567              		.loc 1 166 0
 568 0084 0024     		movs	r4, #0
 569              	.LVL115:
 570 0086 27E0     		b	.L30
 571              	.LVL116:
 572              	.L39:
 167:main.c        ****             if (i < bar_length) {
 573              		.loc 1 167 0
 574 0088 A642     		cmp	r6, r4
 575 008a 21DD     		ble	.L31
 168:main.c        ****                 if (temp < 20) UART_UartPutString("-");
 576              		.loc 1 168 0
 577 008c 2649     		ldr	r1, .L51+36
 578 008e 281C     		adds	r0, r5, #0
 579 0090 FFF7FEFF 		bl	__aeabi_fcmplt
 580              	.LVL117:
 581 0094 0028     		cmp	r0, #0
 582 0096 03D0     		beq	.L48
 583              		.loc 1 168 0 is_stmt 0 discriminator 1
 584 0098 2448     		ldr	r0, .L51+40
 585 009a FFF7FEFF 		bl	UART_UartPutString
 586              	.LVL118:
 587 009e 1AE0     		b	.L34
 588              	.L48:
 169:main.c        ****                 else if (temp < 25) UART_UartPutString("=");
 589              		.loc 1 169 0 is_stmt 1
 590 00a0 2349     		ldr	r1, .L51+44
 591 00a2 281C     		adds	r0, r5, #0
 592 00a4 FFF7FEFF 		bl	__aeabi_fcmplt
 593              	.LVL119:
 594 00a8 0028     		cmp	r0, #0
 595 00aa 03D0     		beq	.L49
 596              		.loc 1 169 0 is_stmt 0 discriminator 1
 597 00ac 2148     		ldr	r0, .L51+48
 598 00ae FFF7FEFF 		bl	UART_UartPutString
 599              	.LVL120:
 600 00b2 10E0     		b	.L34
 601              	.L49:
 170:main.c        ****                 else if (temp < 30) UART_UartPutString("#");
 602              		.loc 1 170 0 is_stmt 1
 603 00b4 2049     		ldr	r1, .L51+52
 604 00b6 281C     		adds	r0, r5, #0
 605 00b8 FFF7FEFF 		bl	__aeabi_fcmplt
 606              	.LVL121:
 607 00bc 0028     		cmp	r0, #0
 608 00be 03D0     		beq	.L50
 609              		.loc 1 170 0 is_stmt 0 discriminator 1
 610 00c0 1E48     		ldr	r0, .L51+56
 611 00c2 FFF7FEFF 		bl	UART_UartPutString
 612              	.LVL122:
 613 00c6 06E0     		b	.L34
 614              	.L50:
ARM GAS  C:\Users\12548\AppData\Local\Temp\ccwCHJyL.s 			page 15


 171:main.c        ****                 else UART_UartPutString("!");
 615              		.loc 1 171 0 is_stmt 1
 616 00c8 1D48     		ldr	r0, .L51+60
 617 00ca FFF7FEFF 		bl	UART_UartPutString
 618              	.LVL123:
 619 00ce 02E0     		b	.L34
 620              	.L31:
 172:main.c        ****             } else {
 173:main.c        ****                 UART_UartPutString(" ");
 621              		.loc 1 173 0
 622 00d0 1C48     		ldr	r0, .L51+64
 623 00d2 FFF7FEFF 		bl	UART_UartPutString
 624              	.LVL124:
 625              	.L34:
 166:main.c        ****             if (i < bar_length) {
 626              		.loc 1 166 0 discriminator 2
 627 00d6 0134     		adds	r4, r4, #1
 628              	.LVL125:
 629              	.L30:
 166:main.c        ****             if (i < bar_length) {
 630              		.loc 1 166 0 is_stmt 0 discriminator 1
 631 00d8 272C     		cmp	r4, #39
 632 00da D5DD     		ble	.L39
 633              	.LBE11:
 174:main.c        ****             }
 175:main.c        ****         }
 176:main.c        ****         UART_UartPutString("]");
 634              		.loc 1 176 0 is_stmt 1
 635 00dc 1A48     		ldr	r0, .L51+68
 636 00de FFF7FEFF 		bl	UART_UartPutString
 637              	.LVL126:
 177:main.c        ****         
 178:main.c        ****         CyDelay(200);
 638              		.loc 1 178 0
 639 00e2 C820     		movs	r0, #200
 640 00e4 FFF7FEFF 		bl	CyDelay
 641              	.LVL127:
 642              	.L27:
 643              	.LBE10:
 151:main.c        ****         temp = GetTemperature();
 644              		.loc 1 151 0
 645 00e8 FFF7FEFF 		bl	UART_SpiUartGetRxBufferSize
 646              	.LVL128:
 647 00ec 0028     		cmp	r0, #0
 648 00ee 99D0     		beq	.L40
 649 00f0 01E0     		b	.L41
 650              	.L42:
 179:main.c        ****     }
 180:main.c        ****     
 181:main.c        ****     while(UART_SpiUartGetRxBufferSize() > 0) UART_UartGetChar();
 651              		.loc 1 181 0 discriminator 2
 652 00f2 FFF7FEFF 		bl	UART_UartGetChar
 653              	.LVL129:
 654              	.L41:
 655              		.loc 1 181 0 is_stmt 0 discriminator 1
 656 00f6 FFF7FEFF 		bl	UART_SpiUartGetRxBufferSize
 657              	.LVL130:
ARM GAS  C:\Users\12548\AppData\Local\Temp\ccwCHJyL.s 			page 16


 658 00fa 0028     		cmp	r0, #0
 659 00fc F9D1     		bne	.L42
 182:main.c        **** }
 660              		.loc 1 182 0 is_stmt 1
 661 00fe 14B0     		add	sp, sp, #80
 662              		@ sp needed
 663 0100 70BD     		pop	{r4, r5, r6, pc}
 664              	.L52:
 665 0102 C046     		.align	2
 666              	.L51:
 667 0104 00000000 		.word	.LC0
 668 0108 24000000 		.word	.LC2
 669 010c 44000000 		.word	.LC4
 670 0110 64000000 		.word	.LC6
 671 0114 84000000 		.word	.LC8
 672 0118 00002041 		.word	1092616192
 673 011c A4000000 		.word	.LC10
 674 0120 00002E40 		.word	1076756480
 675 0124 B0000000 		.word	.LC12
 676 0128 0000A041 		.word	1101004800
 677 012c B4000000 		.word	.LC14
 678 0130 0000C841 		.word	1103626240
 679 0134 B8000000 		.word	.LC16
 680 0138 0000F041 		.word	1106247680
 681 013c BC000000 		.word	.LC18
 682 0140 C0000000 		.word	.LC20
 683 0144 C4000000 		.word	.LC22
 684 0148 C8000000 		.word	.LC24
 685              		.cfi_endproc
 686              	.LFE35:
 687              		.size	TemperatureBarGraph, .-TemperatureBarGraph
 688              		.global	__aeabi_dcmpgt
 689              		.global	__aeabi_dcmplt
 690              		.global	__aeabi_fcmpgt
 691              		.section	.text.TemperatureMeter,"ax",%progbits
 692              		.align	2
 693              		.global	TemperatureMeter
 694              		.code	16
 695              		.thumb_func
 696              		.type	TemperatureMeter, %function
 697              	TemperatureMeter:
 698              	.LFB36:
 183:main.c        **** 
 184:main.c        **** /* Program 2: Temperature Meter */
 185:main.c        **** void TemperatureMeter(void) {
 699              		.loc 1 185 0
 700              		.cfi_startproc
 701              		@ args = 0, pretend = 0, frame = 80
 702              		@ frame_needed = 0, uses_anonymous_args = 0
 703 0000 F0B5     		push	{r4, r5, r6, r7, lr}
 704              		.cfi_def_cfa_offset 20
 705              		.cfi_offset 4, -20
 706              		.cfi_offset 5, -16
 707              		.cfi_offset 6, -12
 708              		.cfi_offset 7, -8
 709              		.cfi_offset 14, -4
 710 0002 95B0     		sub	sp, sp, #84
ARM GAS  C:\Users\12548\AppData\Local\Temp\ccwCHJyL.s 			page 17


 711              		.cfi_def_cfa_offset 104
 186:main.c        ****     float temp, temp_change;
 187:main.c        ****     char buffer[80];
 188:main.c        ****     
 189:main.c        ****     UART_UartPutString("\r\n==== Temperature Meter ====\r\n");
 712              		.loc 1 189 0
 713 0004 4C48     		ldr	r0, .L86
 714 0006 FFF7FEFF 		bl	UART_UartPutString
 715              	.LVL131:
 190:main.c        ****     UART_UartPutString("Shows temperature with trend\r\n");
 716              		.loc 1 190 0
 717 000a 4C48     		ldr	r0, .L86+4
 718 000c FFF7FEFF 		bl	UART_UartPutString
 719              	.LVL132:
 191:main.c        ****     UART_UartPutString("Press any key to stop...\r\n\r\n");
 720              		.loc 1 191 0
 721 0010 4B48     		ldr	r0, .L86+8
 722 0012 FFF7FEFF 		bl	UART_UartPutString
 723              	.LVL133:
 192:main.c        ****     
 193:main.c        ****     last_temp = GetTemperature();
 724              		.loc 1 193 0
 725 0016 FFF7FEFF 		bl	GetTemperature
 726              	.LVL134:
 727 001a 4A4B     		ldr	r3, .L86+12
 728 001c 1860     		str	r0, [r3]
 194:main.c        ****     
 195:main.c        ****     while(UART_SpiUartGetRxBufferSize() == 0) {
 729              		.loc 1 195 0
 730 001e 7CE0     		b	.L54
 731              	.L71:
 732              	.LBB12:
 196:main.c        ****         temp = GetTemperature();
 733              		.loc 1 196 0
 734 0020 FFF7FEFF 		bl	GetTemperature
 735              	.LVL135:
 736 0024 041C     		adds	r4, r0, #0
 737              	.LVL136:
 197:main.c        ****         temp_change = temp - last_temp;
 738              		.loc 1 197 0
 739 0026 474B     		ldr	r3, .L86+12
 740 0028 1968     		ldr	r1, [r3]
 741 002a FFF7FEFF 		bl	__aeabi_fsub
 742              	.LVL137:
 743 002e 061C     		adds	r6, r0, #0
 744              	.LVL138:
 198:main.c        ****         
 199:main.c        ****         /* Display temperature */
 200:main.c        ****         int temp_int = (int)temp;
 745              		.loc 1 200 0
 746 0030 201C     		adds	r0, r4, #0
 747              	.LVL139:
 748 0032 FFF7FEFF 		bl	__aeabi_f2iz
 749              	.LVL140:
 750 0036 0500     		movs	r5, r0
 751              	.LVL141:
 201:main.c        ****         int temp_dec = (int)((temp - temp_int) * 10);
ARM GAS  C:\Users\12548\AppData\Local\Temp\ccwCHJyL.s 			page 18


 752              		.loc 1 201 0
 753 0038 FFF7FEFF 		bl	__aeabi_i2f
 754              	.LVL142:
 755 003c 011C     		adds	r1, r0, #0
 756 003e 201C     		adds	r0, r4, #0
 757 0040 FFF7FEFF 		bl	__aeabi_fsub
 758              	.LVL143:
 759 0044 4049     		ldr	r1, .L86+16
 760 0046 FFF7FEFF 		bl	__aeabi_fmul
 761              	.LVL144:
 762 004a FFF7FEFF 		bl	__aeabi_f2iz
 763              	.LVL145:
 764 004e 0300     		movs	r3, r0
 765              	.LVL146:
 202:main.c        ****         sprintf(buffer, "\rTemp: %d.%d C ", temp_int, temp_dec);
 766              		.loc 1 202 0
 767 0050 2A00     		movs	r2, r5
 768 0052 3E49     		ldr	r1, .L86+20
 769 0054 6846     		mov	r0, sp
 770              	.LVL147:
 771 0056 FFF7FEFF 		bl	sprintf
 772              	.LVL148:
 203:main.c        ****         UART_UartPutString(buffer);
 773              		.loc 1 203 0
 774 005a 6846     		mov	r0, sp
 775 005c FFF7FEFF 		bl	UART_UartPutString
 776              	.LVL149:
 204:main.c        ****         
 205:main.c        ****         /* Show trend */
 206:main.c        ****         if (temp_change > 0.1) {
 777              		.loc 1 206 0
 778 0060 301C     		adds	r0, r6, #0
 779 0062 FFF7FEFF 		bl	__aeabi_f2d
 780              	.LVL150:
 781 0066 0600     		movs	r6, r0
 782              	.LVL151:
 783 0068 0F00     		movs	r7, r1
 784 006a 394A     		ldr	r2, .L86+24
 785 006c 394B     		ldr	r3, .L86+28
 786 006e FFF7FEFF 		bl	__aeabi_dcmpgt
 787              	.LVL152:
 788 0072 0028     		cmp	r0, #0
 789 0074 03D0     		beq	.L81
 207:main.c        ****             UART_UartPutString("Rising  ^^^ ");
 790              		.loc 1 207 0
 791 0076 3848     		ldr	r0, .L86+32
 792 0078 FFF7FEFF 		bl	UART_UartPutString
 793              	.LVL153:
 794 007c 0EE0     		b	.L57
 795              	.L81:
 208:main.c        ****         } else if (temp_change < -0.1) {
 796              		.loc 1 208 0
 797 007e 344A     		ldr	r2, .L86+24
 798 0080 364B     		ldr	r3, .L86+36
 799 0082 3000     		movs	r0, r6
 800 0084 3900     		movs	r1, r7
 801 0086 FFF7FEFF 		bl	__aeabi_dcmplt
ARM GAS  C:\Users\12548\AppData\Local\Temp\ccwCHJyL.s 			page 19


 802              	.LVL154:
 803 008a 0028     		cmp	r0, #0
 804 008c 03D0     		beq	.L82
 209:main.c        ****             UART_UartPutString("Falling vvv ");
 805              		.loc 1 209 0
 806 008e 3448     		ldr	r0, .L86+40
 807 0090 FFF7FEFF 		bl	UART_UartPutString
 808              	.LVL155:
 809 0094 02E0     		b	.L57
 810              	.L82:
 210:main.c        ****         } else {
 211:main.c        ****             UART_UartPutString("Stable  --- ");
 811              		.loc 1 211 0
 812 0096 3348     		ldr	r0, .L86+44
 813 0098 FFF7FEFF 		bl	UART_UartPutString
 814              	.LVL156:
 815              	.L57:
 212:main.c        ****         }
 213:main.c        ****         
 214:main.c        ****         /* Show emoji-like status */
 215:main.c        ****         if (temp < 20) {
 816              		.loc 1 215 0
 817 009c 3249     		ldr	r1, .L86+48
 818 009e 201C     		adds	r0, r4, #0
 819 00a0 FFF7FEFF 		bl	__aeabi_fcmplt
 820              	.LVL157:
 821 00a4 0028     		cmp	r0, #0
 822 00a6 03D0     		beq	.L83
 216:main.c        ****             UART_UartPutString("[COLD]    ");
 823              		.loc 1 216 0
 824 00a8 3048     		ldr	r0, .L86+52
 825 00aa FFF7FEFF 		bl	UART_UartPutString
 826              	.LVL158:
 827 00ae 16E0     		b	.L62
 828              	.L83:
 217:main.c        ****         } else if (temp < 25) {
 829              		.loc 1 217 0
 830 00b0 2F49     		ldr	r1, .L86+56
 831 00b2 201C     		adds	r0, r4, #0
 832 00b4 FFF7FEFF 		bl	__aeabi_fcmplt
 833              	.LVL159:
 834 00b8 0028     		cmp	r0, #0
 835 00ba 03D0     		beq	.L84
 218:main.c        ****             UART_UartPutString("[COOL]    ");
 836              		.loc 1 218 0
 837 00bc 2D48     		ldr	r0, .L86+60
 838 00be FFF7FEFF 		bl	UART_UartPutString
 839              	.LVL160:
 840 00c2 0CE0     		b	.L62
 841              	.L84:
 219:main.c        ****         } else if (temp < 30) {
 842              		.loc 1 219 0
 843 00c4 2C49     		ldr	r1, .L86+64
 844 00c6 201C     		adds	r0, r4, #0
 845 00c8 FFF7FEFF 		bl	__aeabi_fcmplt
 846              	.LVL161:
 847 00cc 0028     		cmp	r0, #0
ARM GAS  C:\Users\12548\AppData\Local\Temp\ccwCHJyL.s 			page 20


 848 00ce 03D0     		beq	.L85
 220:main.c        ****             UART_UartPutString("[WARM]    ");
 849              		.loc 1 220 0
 850 00d0 2A48     		ldr	r0, .L86+68
 851 00d2 FFF7FEFF 		bl	UART_UartPutString
 852              	.LVL162:
 853 00d6 02E0     		b	.L62
 854              	.L85:
 221:main.c        ****         } else {
 222:main.c        ****             UART_UartPutString("[HOT!]    ");
 855              		.loc 1 222 0
 856 00d8 2948     		ldr	r0, .L86+72
 857 00da FFF7FEFF 		bl	UART_UartPutString
 858              	.LVL163:
 859              	.L62:
 223:main.c        ****         }
 224:main.c        ****         
 225:main.c        ****         /* Update min/max */
 226:main.c        ****         if (temp > max_temp) {
 860              		.loc 1 226 0
 861 00de 294B     		ldr	r3, .L86+76
 862 00e0 1968     		ldr	r1, [r3]
 863 00e2 201C     		adds	r0, r4, #0
 864 00e4 FFF7FEFF 		bl	__aeabi_fcmpgt
 865              	.LVL164:
 866 00e8 0028     		cmp	r0, #0
 867 00ea 04D0     		beq	.L67
 227:main.c        ****             max_temp = temp;
 868              		.loc 1 227 0
 869 00ec 254B     		ldr	r3, .L86+76
 870 00ee 1C60     		str	r4, [r3]
 228:main.c        ****             UART_UartPutString("*MAX*");
 871              		.loc 1 228 0
 872 00f0 2548     		ldr	r0, .L86+80
 873 00f2 FFF7FEFF 		bl	UART_UartPutString
 874              	.LVL165:
 875              	.L67:
 229:main.c        ****         }
 230:main.c        ****         if (temp < min_temp) {
 876              		.loc 1 230 0
 877 00f6 134B     		ldr	r3, .L86+12
 878 00f8 5968     		ldr	r1, [r3, #4]
 879 00fa 201C     		adds	r0, r4, #0
 880 00fc FFF7FEFF 		bl	__aeabi_fcmplt
 881              	.LVL166:
 882 0100 0028     		cmp	r0, #0
 883 0102 04D0     		beq	.L69
 231:main.c        ****             min_temp = temp;
 884              		.loc 1 231 0
 885 0104 0F4B     		ldr	r3, .L86+12
 886 0106 5C60     		str	r4, [r3, #4]
 232:main.c        ****             UART_UartPutString("*MIN*");
 887              		.loc 1 232 0
 888 0108 2048     		ldr	r0, .L86+84
 889 010a FFF7FEFF 		bl	UART_UartPutString
 890              	.LVL167:
 891              	.L69:
ARM GAS  C:\Users\12548\AppData\Local\Temp\ccwCHJyL.s 			page 21


 233:main.c        ****         }
 234:main.c        ****         
 235:main.c        ****         last_temp = temp;
 892              		.loc 1 235 0
 893 010e 0D4B     		ldr	r3, .L86+12
 894 0110 1C60     		str	r4, [r3]
 236:main.c        ****         CyDelay(500);
 895              		.loc 1 236 0
 896 0112 FA20     		movs	r0, #250
 897 0114 4000     		lsls	r0, r0, #1
 898 0116 FFF7FEFF 		bl	CyDelay
 899              	.LVL168:
 900              	.L54:
 901              	.LBE12:
 195:main.c        ****         temp = GetTemperature();
 902              		.loc 1 195 0
 903 011a FFF7FEFF 		bl	UART_SpiUartGetRxBufferSize
 904              	.LVL169:
 905 011e 0028     		cmp	r0, #0
 906 0120 00D1     		bne	.LCB873
 907 0122 7DE7     		b	.L71	@long jump
 908              	.LCB873:
 909 0124 01E0     		b	.L72
 910              	.L73:
 237:main.c        ****     }
 238:main.c        ****     
 239:main.c        ****     while(UART_SpiUartGetRxBufferSize() > 0) UART_UartGetChar();
 911              		.loc 1 239 0 discriminator 2
 912 0126 FFF7FEFF 		bl	UART_UartGetChar
 913              	.LVL170:
 914              	.L72:
 915              		.loc 1 239 0 is_stmt 0 discriminator 1
 916 012a FFF7FEFF 		bl	UART_SpiUartGetRxBufferSize
 917              	.LVL171:
 918 012e 0028     		cmp	r0, #0
 919 0130 F9D1     		bne	.L73
 240:main.c        **** }
 920              		.loc 1 240 0 is_stmt 1
 921 0132 15B0     		add	sp, sp, #84
 922              		@ sp needed
 923 0134 F0BD     		pop	{r4, r5, r6, r7, pc}
 924              	.L87:
 925 0136 C046     		.align	2
 926              	.L86:
 927 0138 CC000000 		.word	.LC26
 928 013c EC000000 		.word	.LC28
 929 0140 44000000 		.word	.LC4
 930 0144 00000000 		.word	.LANCHOR0
 931 0148 00002041 		.word	1092616192
 932 014c 0C010000 		.word	.LC32
 933 0150 9A999999 		.word	-1717986918
 934 0154 9999B93F 		.word	1069128089
 935 0158 1C010000 		.word	.LC34
 936 015c 9999B9BF 		.word	-1078355559
 937 0160 2C010000 		.word	.LC36
 938 0164 3C010000 		.word	.LC38
 939 0168 0000A041 		.word	1101004800
ARM GAS  C:\Users\12548\AppData\Local\Temp\ccwCHJyL.s 			page 22


 940 016c 4C010000 		.word	.LC40
 941 0170 0000C841 		.word	1103626240
 942 0174 58010000 		.word	.LC42
 943 0178 0000F041 		.word	1106247680
 944 017c 64010000 		.word	.LC44
 945 0180 70010000 		.word	.LC46
 946 0184 00000000 		.word	.LANCHOR1
 947 0188 7C010000 		.word	.LC49
 948 018c 84010000 		.word	.LC51
 949              		.cfi_endproc
 950              	.LFE36:
 951              		.size	TemperatureMeter, .-TemperatureMeter
 952              		.section	.text.TemperatureGame,"ax",%progbits
 953              		.align	2
 954              		.global	TemperatureGame
 955              		.code	16
 956              		.thumb_func
 957              		.type	TemperatureGame, %function
 958              	TemperatureGame:
 959              	.LFB37:
 241:main.c        **** 
 242:main.c        **** /* Program 3: Temperature Game */
 243:main.c        **** void TemperatureGame(void) {
 960              		.loc 1 243 0
 961              		.cfi_startproc
 962              		@ args = 0, pretend = 0, frame = 80
 963              		@ frame_needed = 0, uses_anonymous_args = 0
 964 0000 F0B5     		push	{r4, r5, r6, r7, lr}
 965              		.cfi_def_cfa_offset 20
 966              		.cfi_offset 4, -20
 967              		.cfi_offset 5, -16
 968              		.cfi_offset 6, -12
 969              		.cfi_offset 7, -8
 970              		.cfi_offset 14, -4
 971 0002 95B0     		sub	sp, sp, #84
 972              		.cfi_def_cfa_offset 104
 973              	.LVL172:
 244:main.c        ****     float target, current;
 245:main.c        ****     char buffer[80];
 246:main.c        ****     int score = 0;
 247:main.c        ****     int round;
 248:main.c        ****     
 249:main.c        ****     UART_UartPutString("\r\n==== Temperature Target Game ====\r\n");
 974              		.loc 1 249 0
 975 0004 3E48     		ldr	r0, .L97
 976 0006 FFF7FEFF 		bl	UART_UartPutString
 977              	.LVL173:
 250:main.c        ****     UART_UartPutString("Heat the sensor to the target!\r\n\r\n");
 978              		.loc 1 250 0
 979 000a 3E48     		ldr	r0, .L97+4
 980 000c FFF7FEFF 		bl	UART_UartPutString
 981              	.LVL174:
 251:main.c        ****     
 252:main.c        ****     current = GetTemperature();
 982              		.loc 1 252 0
 983 0010 FFF7FEFF 		bl	GetTemperature
 984              	.LVL175:
ARM GAS  C:\Users\12548\AppData\Local\Temp\ccwCHJyL.s 			page 23


 985 0014 041C     		adds	r4, r0, #0
 986              	.LVL176:
 253:main.c        ****     
 254:main.c        ****     for (round = 1; round <= 3; round++) {
 987              		.loc 1 254 0
 988 0016 0126     		movs	r6, #1
 246:main.c        ****     int round;
 989              		.loc 1 246 0
 990 0018 0027     		movs	r7, #0
 991              		.loc 1 254 0
 992 001a 65E0     		b	.L89
 993              	.LVL177:
 994              	.L96:
 995              	.LBB13:
 255:main.c        ****         sprintf(buffer, "Round %d of 3\r\n", round);
 996              		.loc 1 255 0
 997 001c 3200     		movs	r2, r6
 998 001e 3A49     		ldr	r1, .L97+8
 999 0020 6846     		mov	r0, sp
 1000 0022 FFF7FEFF 		bl	sprintf
 1001              	.LVL178:
 256:main.c        ****         UART_UartPutString(buffer);
 1002              		.loc 1 256 0
 1003 0026 6846     		mov	r0, sp
 1004 0028 FFF7FEFF 		bl	UART_UartPutString
 1005              	.LVL179:
 257:main.c        ****         
 258:main.c        ****         /* Set target 2-4 degrees higher */
 259:main.c        ****         target = current + 2.0 + (round - 1);
 1006              		.loc 1 259 0
 1007 002c 201C     		adds	r0, r4, #0
 1008 002e FFF7FEFF 		bl	__aeabi_f2d
 1009              	.LVL180:
 1010 0032 0022     		movs	r2, #0
 1011 0034 8023     		movs	r3, #128
 1012 0036 DB05     		lsls	r3, r3, #23
 1013 0038 FFF7FEFF 		bl	__aeabi_dadd
 1014              	.LVL181:
 1015 003c 0400     		movs	r4, r0
 1016              	.LVL182:
 1017 003e 0D00     		movs	r5, r1
 1018 0040 701E     		subs	r0, r6, #1
 1019 0042 FFF7FEFF 		bl	__aeabi_i2d
 1020              	.LVL183:
 1021 0046 2200     		movs	r2, r4
 1022 0048 2B00     		movs	r3, r5
 1023 004a FFF7FEFF 		bl	__aeabi_dadd
 1024              	.LVL184:
 1025 004e FFF7FEFF 		bl	__aeabi_d2f
 1026              	.LVL185:
 1027 0052 051C     		adds	r5, r0, #0
 1028              	.LVL186:
 260:main.c        ****         
 261:main.c        ****         int target_int = (int)target;
 1029              		.loc 1 261 0
 1030 0054 FFF7FEFF 		bl	__aeabi_f2iz
 1031              	.LVL187:
ARM GAS  C:\Users\12548\AppData\Local\Temp\ccwCHJyL.s 			page 24


 1032 0058 0200     		movs	r2, r0
 1033              	.LVL188:
 262:main.c        ****         sprintf(buffer, "Target: %d C\r\n", target_int);
 1034              		.loc 1 262 0
 1035 005a 2C49     		ldr	r1, .L97+12
 1036 005c 6846     		mov	r0, sp
 1037              	.LVL189:
 1038 005e FFF7FEFF 		bl	sprintf
 1039              	.LVL190:
 263:main.c        ****         UART_UartPutString(buffer);
 1040              		.loc 1 263 0
 1041 0062 6846     		mov	r0, sp
 1042 0064 FFF7FEFF 		bl	UART_UartPutString
 1043              	.LVL191:
 264:main.c        ****         UART_UartPutString("GO!\r\n\r\n");
 1044              		.loc 1 264 0
 1045 0068 2948     		ldr	r0, .L97+16
 1046 006a FFF7FEFF 		bl	UART_UartPutString
 1047              	.LVL192:
 1048              	.L95:
 1049              	.LBB14:
 265:main.c        ****         
 266:main.c        ****         /* Game loop */
 267:main.c        ****         while(1) {
 268:main.c        ****             current = GetTemperature();
 1050              		.loc 1 268 0
 1051 006e FFF7FEFF 		bl	GetTemperature
 1052              	.LVL193:
 1053 0072 041C     		adds	r4, r0, #0
 1054              	.LVL194:
 269:main.c        ****             
 270:main.c        ****             int current_int = (int)current;
 1055              		.loc 1 270 0
 1056 0074 FFF7FEFF 		bl	__aeabi_f2iz
 1057              	.LVL195:
 1058 0078 0200     		movs	r2, r0
 1059              	.LVL196:
 271:main.c        ****             sprintf(buffer, "\rCurrent: %d C ", current_int);
 1060              		.loc 1 271 0
 1061 007a 2649     		ldr	r1, .L97+20
 1062 007c 6846     		mov	r0, sp
 1063              	.LVL197:
 1064 007e FFF7FEFF 		bl	sprintf
 1065              	.LVL198:
 272:main.c        ****             UART_UartPutString(buffer);
 1066              		.loc 1 272 0
 1067 0082 6846     		mov	r0, sp
 1068 0084 FFF7FEFF 		bl	UART_UartPutString
 1069              	.LVL199:
 273:main.c        ****             
 274:main.c        ****             /* Distance indicator */
 275:main.c        ****             int diff = (int)(target - current);
 1070              		.loc 1 275 0
 1071 0088 211C     		adds	r1, r4, #0
 1072 008a 281C     		adds	r0, r5, #0
 1073 008c FFF7FEFF 		bl	__aeabi_fsub
 1074              	.LVL200:
ARM GAS  C:\Users\12548\AppData\Local\Temp\ccwCHJyL.s 			page 25


 1075 0090 FFF7FEFF 		bl	__aeabi_f2iz
 1076              	.LVL201:
 276:main.c        ****             if (diff > 3) {
 1077              		.loc 1 276 0
 1078 0094 0328     		cmp	r0, #3
 1079 0096 03DD     		ble	.L90
 277:main.c        ****                 UART_UartPutString("[.......]");
 1080              		.loc 1 277 0
 1081 0098 1F48     		ldr	r0, .L97+24
 1082              	.LVL202:
 1083 009a FFF7FEFF 		bl	UART_UartPutString
 1084              	.LVL203:
 1085 009e 1EE0     		b	.L91
 1086              	.LVL204:
 1087              	.L90:
 278:main.c        ****             } else if (diff > 2) {
 1088              		.loc 1 278 0
 1089 00a0 0228     		cmp	r0, #2
 1090 00a2 03DD     		ble	.L92
 279:main.c        ****                 UART_UartPutString("[==.....]");
 1091              		.loc 1 279 0
 1092 00a4 1D48     		ldr	r0, .L97+28
 1093              	.LVL205:
 1094 00a6 FFF7FEFF 		bl	UART_UartPutString
 1095              	.LVL206:
 1096 00aa 18E0     		b	.L91
 1097              	.LVL207:
 1098              	.L92:
 280:main.c        ****             } else if (diff > 1) {
 1099              		.loc 1 280 0
 1100 00ac 0128     		cmp	r0, #1
 1101 00ae 03DD     		ble	.L93
 281:main.c        ****                 UART_UartPutString("[====...]");
 1102              		.loc 1 281 0
 1103 00b0 1B48     		ldr	r0, .L97+32
 1104              	.LVL208:
 1105 00b2 FFF7FEFF 		bl	UART_UartPutString
 1106              	.LVL209:
 1107 00b6 12E0     		b	.L91
 1108              	.LVL210:
 1109              	.L93:
 282:main.c        ****             } else if (diff > 0) {
 1110              		.loc 1 282 0
 1111 00b8 0028     		cmp	r0, #0
 1112 00ba 03DD     		ble	.L94
 283:main.c        ****                 UART_UartPutString("[======.]");
 1113              		.loc 1 283 0
 1114 00bc 1948     		ldr	r0, .L97+36
 1115              	.LVL211:
 1116 00be FFF7FEFF 		bl	UART_UartPutString
 1117              	.LVL212:
 1118 00c2 0CE0     		b	.L91
 1119              	.LVL213:
 1120              	.L94:
 284:main.c        ****             } else {
 285:main.c        ****                 UART_UartPutString("[=======]");
 1121              		.loc 1 285 0
ARM GAS  C:\Users\12548\AppData\Local\Temp\ccwCHJyL.s 			page 26


 1122 00c4 1848     		ldr	r0, .L97+40
 1123              	.LVL214:
 1124 00c6 FFF7FEFF 		bl	UART_UartPutString
 1125              	.LVL215:
 286:main.c        ****                 UART_UartPutString(" SUCCESS!\r\n");
 1126              		.loc 1 286 0
 1127 00ca 1848     		ldr	r0, .L97+44
 1128 00cc FFF7FEFF 		bl	UART_UartPutString
 1129              	.LVL216:
 287:main.c        ****                 score += 10;
 1130              		.loc 1 287 0
 1131 00d0 0A37     		adds	r7, r7, #10
 1132              	.LVL217:
 1133              	.LBE14:
 288:main.c        ****                 break;
 289:main.c        ****             }
 290:main.c        ****             
 291:main.c        ****             CyDelay(300);
 292:main.c        ****         }
 293:main.c        ****         
 294:main.c        ****         CyDelay(1000);
 1134              		.loc 1 294 0
 1135 00d2 FA20     		movs	r0, #250
 1136 00d4 8000     		lsls	r0, r0, #2
 1137 00d6 FFF7FEFF 		bl	CyDelay
 1138              	.LVL218:
 1139              	.LBE13:
 254:main.c        ****         sprintf(buffer, "Round %d of 3\r\n", round);
 1140              		.loc 1 254 0
 1141 00da 0136     		adds	r6, r6, #1
 1142              	.LVL219:
 1143 00dc 04E0     		b	.L89
 1144              	.L91:
 1145              	.LBB16:
 1146              	.LBB15:
 291:main.c        ****         }
 1147              		.loc 1 291 0
 1148 00de 9620     		movs	r0, #150
 1149 00e0 4000     		lsls	r0, r0, #1
 1150 00e2 FFF7FEFF 		bl	CyDelay
 1151              	.LVL220:
 1152              	.LBE15:
 292:main.c        ****         
 1153              		.loc 1 292 0
 1154 00e6 C2E7     		b	.L95
 1155              	.LVL221:
 1156              	.L89:
 1157              	.LBE16:
 254:main.c        ****         sprintf(buffer, "Round %d of 3\r\n", round);
 1158              		.loc 1 254 0 discriminator 1
 1159 00e8 032E     		cmp	r6, #3
 1160 00ea 97DD     		ble	.L96
 295:main.c        ****     }
 296:main.c        ****     
 297:main.c        ****     sprintf(buffer, "\r\nGame Over! Final Score: %d/30\r\n", score);
 1161              		.loc 1 297 0
 1162 00ec 3A00     		movs	r2, r7
ARM GAS  C:\Users\12548\AppData\Local\Temp\ccwCHJyL.s 			page 27


 1163 00ee 1049     		ldr	r1, .L97+48
 1164 00f0 6846     		mov	r0, sp
 1165 00f2 FFF7FEFF 		bl	sprintf
 1166              	.LVL222:
 298:main.c        ****     UART_UartPutString(buffer);
 1167              		.loc 1 298 0
 1168 00f6 6846     		mov	r0, sp
 1169 00f8 FFF7FEFF 		bl	UART_UartPutString
 1170              	.LVL223:
 299:main.c        **** }
 1171              		.loc 1 299 0
 1172 00fc 15B0     		add	sp, sp, #84
 1173              		@ sp needed
 1174              	.LVL224:
 1175              	.LVL225:
 1176              	.LVL226:
 1177 00fe F0BD     		pop	{r4, r5, r6, r7, pc}
 1178              	.L98:
 1179              		.align	2
 1180              	.L97:
 1181 0100 8C010000 		.word	.LC53
 1182 0104 B4010000 		.word	.LC55
 1183 0108 D8010000 		.word	.LC57
 1184 010c E8010000 		.word	.LC59
 1185 0110 F8010000 		.word	.LC61
 1186 0114 00020000 		.word	.LC63
 1187 0118 10020000 		.word	.LC65
 1188 011c 1C020000 		.word	.LC67
 1189 0120 28020000 		.word	.LC69
 1190 0124 34020000 		.word	.LC71
 1191 0128 40020000 		.word	.LC73
 1192 012c 4C020000 		.word	.LC75
 1193 0130 58020000 		.word	.LC77
 1194              		.cfi_endproc
 1195              	.LFE37:
 1196              		.size	TemperatureGame, .-TemperatureGame
 1197              		.section	.text.main,"ax",%progbits
 1198              		.align	2
 1199              		.global	main
 1200              		.code	16
 1201              		.thumb_func
 1202              		.type	main, %function
 1203              	main:
 1204              	.LFB38:
 300:main.c        **** 
 301:main.c        **** /* Main program */
 302:main.c        **** int main(void) {
 1205              		.loc 1 302 0
 1206              		.cfi_startproc
 1207              		@ args = 0, pretend = 0, frame = 80
 1208              		@ frame_needed = 0, uses_anonymous_args = 0
 1209 0000 10B5     		push	{r4, lr}
 1210              		.cfi_def_cfa_offset 8
 1211              		.cfi_offset 4, -8
 1212              		.cfi_offset 14, -4
 1213 0002 94B0     		sub	sp, sp, #80
 1214              		.cfi_def_cfa_offset 88
ARM GAS  C:\Users\12548\AppData\Local\Temp\ccwCHJyL.s 			page 28


 303:main.c        ****     uint8 choice;
 304:main.c        ****     float temp;
 305:main.c        ****     char buffer[80];
 306:main.c        ****     
 307:main.c        ****     /* Enable global interrupts */
 308:main.c        ****     CyGlobalIntEnable;
 1215              		.loc 1 308 0
 1216              		.syntax divided
 1217              	@ 308 "main.c" 1
 1218 0004 62B6     		CPSIE   i
 1219              	@ 0 "" 2
 309:main.c        ****     
 310:main.c        ****     /* Start UART */
 311:main.c        ****     UART_Start();
 1220              		.loc 1 311 0
 1221              		.thumb
 1222              		.syntax unified
 1223 0006 FFF7FEFF 		bl	UART_Start
 1224              	.LVL227:
 312:main.c        ****     
 313:main.c        ****     /* Welcome */
 314:main.c        ****     UART_UartPutString("\033[2J\033[H");
 1225              		.loc 1 314 0
 1226 000a 3A48     		ldr	r0, .L110
 1227 000c FFF7FEFF 		bl	UART_UartPutString
 1228              	.LVL228:
 315:main.c        ****     UART_UartPutString("============================\r\n");
 1229              		.loc 1 315 0
 1230 0010 394C     		ldr	r4, .L110+4
 1231 0012 2000     		movs	r0, r4
 1232 0014 FFF7FEFF 		bl	UART_UartPutString
 1233              	.LVL229:
 316:main.c        ****     UART_UartPutString("  Simple Temperature Fun!   \r\n");
 1234              		.loc 1 316 0
 1235 0018 3848     		ldr	r0, .L110+8
 1236 001a FFF7FEFF 		bl	UART_UartPutString
 1237              	.LVL230:
 317:main.c        ****     UART_UartPutString("============================\r\n");
 1238              		.loc 1 317 0
 1239 001e 2000     		movs	r0, r4
 1240 0020 FFF7FEFF 		bl	UART_UartPutString
 1241              	.LVL231:
 318:main.c        ****     
 319:main.c        ****     /* Test sensor */
 320:main.c        ****     UART_UartPutString("\r\nTesting sensor... ");
 1242              		.loc 1 320 0
 1243 0024 3648     		ldr	r0, .L110+12
 1244 0026 FFF7FEFF 		bl	UART_UartPutString
 1245              	.LVL232:
 321:main.c        ****     
 322:main.c        ****     OneWire_Pin_Write(0);
 1246              		.loc 1 322 0
 1247 002a 0020     		movs	r0, #0
 1248 002c FFF7FEFF 		bl	OneWire_Pin_Write
 1249              	.LVL233:
 323:main.c        ****     CyDelayUs(480);
 1250              		.loc 1 323 0
ARM GAS  C:\Users\12548\AppData\Local\Temp\ccwCHJyL.s 			page 29


 1251 0030 F020     		movs	r0, #240
 1252 0032 4000     		lsls	r0, r0, #1
 1253 0034 FFF7FEFF 		bl	CyDelayUs
 1254              	.LVL234:
 324:main.c        ****     OneWire_Pin_Write(1);
 1255              		.loc 1 324 0
 1256 0038 0120     		movs	r0, #1
 1257 003a FFF7FEFF 		bl	OneWire_Pin_Write
 1258              	.LVL235:
 325:main.c        ****     CyDelayUs(70);
 1259              		.loc 1 325 0
 1260 003e 4620     		movs	r0, #70
 1261 0040 FFF7FEFF 		bl	CyDelayUs
 1262              	.LVL236:
 326:main.c        ****     
 327:main.c        ****     if (!OneWire_Pin_Read()) {
 1263              		.loc 1 327 0
 1264 0044 FFF7FEFF 		bl	OneWire_Pin_Read
 1265              	.LVL237:
 1266 0048 0028     		cmp	r0, #0
 1267 004a 18D1     		bne	.L100
 1268              	.LBB17:
 328:main.c        ****         UART_UartPutString("OK!\r\n");
 1269              		.loc 1 328 0
 1270 004c 2D48     		ldr	r0, .L110+16
 1271 004e FFF7FEFF 		bl	UART_UartPutString
 1272              	.LVL238:
 329:main.c        ****         CyDelayUs(410);
 1273              		.loc 1 329 0
 1274 0052 CD20     		movs	r0, #205
 1275 0054 4000     		lsls	r0, r0, #1
 1276 0056 FFF7FEFF 		bl	CyDelayUs
 1277              	.LVL239:
 330:main.c        ****         
 331:main.c        ****         /* Get initial temperature */
 332:main.c        ****         temp = GetTemperature();
 1278              		.loc 1 332 0
 1279 005a FFF7FEFF 		bl	GetTemperature
 1280              	.LVL240:
 1281 005e 041C     		adds	r4, r0, #0
 1282              	.LVL241:
 333:main.c        ****         int temp_int = (int)temp;
 1283              		.loc 1 333 0
 1284 0060 FFF7FEFF 		bl	__aeabi_f2iz
 1285              	.LVL242:
 1286 0064 0200     		movs	r2, r0
 1287              	.LVL243:
 334:main.c        ****         sprintf(buffer, "Current temperature: %d C\r\n", temp_int);
 1288              		.loc 1 334 0
 1289 0066 2849     		ldr	r1, .L110+20
 1290 0068 6846     		mov	r0, sp
 1291              	.LVL244:
 1292 006a FFF7FEFF 		bl	sprintf
 1293              	.LVL245:
 335:main.c        ****         UART_UartPutString(buffer);
 1294              		.loc 1 335 0
 1295 006e 6846     		mov	r0, sp
ARM GAS  C:\Users\12548\AppData\Local\Temp\ccwCHJyL.s 			page 30


 1296 0070 FFF7FEFF 		bl	UART_UartPutString
 1297              	.LVL246:
 336:main.c        ****         min_temp = max_temp = temp;
 1298              		.loc 1 336 0
 1299 0074 254B     		ldr	r3, .L110+24
 1300 0076 1C60     		str	r4, [r3]
 1301 0078 254B     		ldr	r3, .L110+28
 1302 007a 5C60     		str	r4, [r3, #4]
 1303              	.LBE17:
 1304 007c 06E0     		b	.L101
 1305              	.LVL247:
 1306              	.L100:
 337:main.c        ****     } else {
 338:main.c        ****         UART_UartPutString("FAILED!\r\n");
 1307              		.loc 1 338 0
 1308 007e 2548     		ldr	r0, .L110+32
 1309 0080 FFF7FEFF 		bl	UART_UartPutString
 1310              	.LVL248:
 339:main.c        ****         UART_UartPutString("Check connections!\r\n");
 1311              		.loc 1 339 0
 1312 0084 2448     		ldr	r0, .L110+36
 1313 0086 FFF7FEFF 		bl	UART_UartPutString
 1314              	.LVL249:
 1315              	.L102:
 1316 008a FEE7     		b	.L102
 1317              	.L101:
 340:main.c        ****         while(1);
 341:main.c        ****     }
 342:main.c        ****     
 343:main.c        ****     /* Main menu */
 344:main.c        ****     for(;;) {
 345:main.c        ****         UART_UartPutString("\r\n=== Menu ===\r\n");
 1318              		.loc 1 345 0
 1319 008c 2348     		ldr	r0, .L110+40
 1320 008e FFF7FEFF 		bl	UART_UartPutString
 1321              	.LVL250:
 346:main.c        ****         UART_UartPutString("1. Temperature Bar Graph\r\n");
 1322              		.loc 1 346 0
 1323 0092 2348     		ldr	r0, .L110+44
 1324 0094 FFF7FEFF 		bl	UART_UartPutString
 1325              	.LVL251:
 347:main.c        ****         UART_UartPutString("2. Temperature Meter\r\n");
 1326              		.loc 1 347 0
 1327 0098 2248     		ldr	r0, .L110+48
 1328 009a FFF7FEFF 		bl	UART_UartPutString
 1329              	.LVL252:
 348:main.c        ****         UART_UartPutString("3. Temperature Game\r\n");
 1330              		.loc 1 348 0
 1331 009e 2248     		ldr	r0, .L110+52
 1332 00a0 FFF7FEFF 		bl	UART_UartPutString
 1333              	.LVL253:
 349:main.c        ****         UART_UartPutString("\r\nSelect (1-3): ");
 1334              		.loc 1 349 0
 1335 00a4 2148     		ldr	r0, .L110+56
 1336 00a6 FFF7FEFF 		bl	UART_UartPutString
 1337              	.LVL254:
 1338              	.L103:
ARM GAS  C:\Users\12548\AppData\Local\Temp\ccwCHJyL.s 			page 31


 350:main.c        ****         
 351:main.c        ****         while(UART_SpiUartGetRxBufferSize() == 0);
 1339              		.loc 1 351 0 discriminator 1
 1340 00aa FFF7FEFF 		bl	UART_SpiUartGetRxBufferSize
 1341              	.LVL255:
 1342 00ae 0028     		cmp	r0, #0
 1343 00b0 FBD0     		beq	.L103
 352:main.c        ****         choice = UART_UartGetChar();
 1344              		.loc 1 352 0
 1345 00b2 FFF7FEFF 		bl	UART_UartGetChar
 1346              	.LVL256:
 1347 00b6 FF24     		movs	r4, #255
 1348 00b8 0440     		ands	r4, r0
 353:main.c        ****         UART_UartPutChar(choice);
 1349              		.loc 1 353 0
 1350 00ba 2000     		movs	r0, r4
 1351              	.LVL257:
 1352 00bc FFF7FEFF 		bl	UART_SpiUartWriteTxData
 1353              	.LVL258:
 354:main.c        ****         UART_UartPutString("\r\n");
 1354              		.loc 1 354 0
 1355 00c0 1B48     		ldr	r0, .L110+60
 1356 00c2 FFF7FEFF 		bl	UART_UartPutString
 1357              	.LVL259:
 355:main.c        ****         
 356:main.c        ****         switch(choice) {
 1358              		.loc 1 356 0
 1359 00c6 322C     		cmp	r4, #50
 1360 00c8 06D0     		beq	.L105
 1361 00ca 332C     		cmp	r4, #51
 1362 00cc 07D0     		beq	.L106
 1363 00ce 312C     		cmp	r4, #49
 1364 00d0 08D1     		bne	.L109
 357:main.c        ****             case '1':
 358:main.c        ****                 TemperatureBarGraph();
 1365              		.loc 1 358 0
 1366 00d2 FFF7FEFF 		bl	TemperatureBarGraph
 1367              	.LVL260:
 359:main.c        ****                 break;
 1368              		.loc 1 359 0
 1369 00d6 08E0     		b	.L108
 1370              	.L105:
 360:main.c        ****             case '2':
 361:main.c        ****                 TemperatureMeter();
 1371              		.loc 1 361 0
 1372 00d8 FFF7FEFF 		bl	TemperatureMeter
 1373              	.LVL261:
 362:main.c        ****                 break;
 1374              		.loc 1 362 0
 1375 00dc 05E0     		b	.L108
 1376              	.L106:
 363:main.c        ****             case '3':
 364:main.c        ****                 TemperatureGame();
 1377              		.loc 1 364 0
 1378 00de FFF7FEFF 		bl	TemperatureGame
 1379              	.LVL262:
 365:main.c        ****                 break;
ARM GAS  C:\Users\12548\AppData\Local\Temp\ccwCHJyL.s 			page 32


 1380              		.loc 1 365 0
 1381 00e2 02E0     		b	.L108
 1382              	.L109:
 366:main.c        ****             default:
 367:main.c        ****                 UART_UartPutString("Invalid!\r\n");
 1383              		.loc 1 367 0
 1384 00e4 1348     		ldr	r0, .L110+64
 1385 00e6 FFF7FEFF 		bl	UART_UartPutString
 1386              	.LVL263:
 1387              	.L108:
 368:main.c        ****         }
 369:main.c        ****         
 370:main.c        ****         CyDelay(1000);
 1388              		.loc 1 370 0
 1389 00ea FA20     		movs	r0, #250
 1390 00ec 8000     		lsls	r0, r0, #2
 1391 00ee FFF7FEFF 		bl	CyDelay
 1392              	.LVL264:
 371:main.c        ****     }
 1393              		.loc 1 371 0
 1394 00f2 CBE7     		b	.L101
 1395              	.L111:
 1396              		.align	2
 1397              	.L110:
 1398 00f4 7C020000 		.word	.LC79
 1399 00f8 84020000 		.word	.LC81
 1400 00fc A4020000 		.word	.LC83
 1401 0100 C4020000 		.word	.LC85
 1402 0104 DC020000 		.word	.LC87
 1403 0108 E4020000 		.word	.LC89
 1404 010c 00000000 		.word	.LANCHOR1
 1405 0110 00000000 		.word	.LANCHOR0
 1406 0114 00030000 		.word	.LC93
 1407 0118 0C030000 		.word	.LC95
 1408 011c 24030000 		.word	.LC97
 1409 0120 38030000 		.word	.LC99
 1410 0124 54030000 		.word	.LC101
 1411 0128 6C030000 		.word	.LC103
 1412 012c 84030000 		.word	.LC105
 1413 0130 98030000 		.word	.LC107
 1414 0134 9C030000 		.word	.LC109
 1415              		.cfi_endproc
 1416              	.LFE38:
 1417              		.size	main, .-main
 1418              		.global	min_temp
 1419              		.global	max_temp
 1420              		.global	last_temp
 1421              		.data
 1422              		.align	2
 1423              		.set	.LANCHOR0,. + 0
 1424              		.type	last_temp, %object
 1425              		.size	last_temp, 4
 1426              	last_temp:
 1427 0000 0000C841 		.word	1103626240
 1428              		.type	min_temp, %object
 1429              		.size	min_temp, 4
 1430              	min_temp:
ARM GAS  C:\Users\12548\AppData\Local\Temp\ccwCHJyL.s 			page 33


 1431 0004 00004842 		.word	1112014848
 1432              		.section	.rodata.str1.4,"aMS",%progbits,1
 1433              		.align	2
 1434              	.LC0:
 1435 0000 0D0A3D3D 		.ascii	"\015\012==== Temperature Bar Graph ====\015\012\000"
 1435      3D3D2054 
 1435      656D7065 
 1435      72617475 
 1435      72652042 
 1436              	.LC2:
 1437 0024 56697375 		.ascii	"Visual temperature display\015\012\000"
 1437      616C2074 
 1437      656D7065 
 1437      72617475 
 1437      72652064 
 1438 0041 000000   		.space	3
 1439              	.LC4:
 1440 0044 50726573 		.ascii	"Press any key to stop...\015\012\015\012\000"
 1440      7320616E 
 1440      79206B65 
 1440      7920746F 
 1440      2073746F 
 1441 0061 000000   		.space	3
 1442              	.LC6:
 1443 0064 31354320 		.ascii	"15C         25C         35C\015\012\000"
 1443      20202020 
 1443      20202020 
 1443      32354320 
 1443      20202020 
 1444 0082 0000     		.space	2
 1445              	.LC8:
 1446 0084 207C2020 		.ascii	" |           |           |\015\012\000"
 1446      20202020 
 1446      20202020 
 1446      207C2020 
 1446      20202020 
 1447 00a1 000000   		.space	3
 1448              	.LC10:
 1449 00a4 0D25642E 		.ascii	"\015%d.%d C \000"
 1449      25642043 
 1449      2000
 1450 00ae 0000     		.space	2
 1451              	.LC12:
 1452 00b0 5B00     		.ascii	"[\000"
 1453 00b2 0000     		.space	2
 1454              	.LC14:
 1455 00b4 2D00     		.ascii	"-\000"
 1456 00b6 0000     		.space	2
 1457              	.LC16:
 1458 00b8 3D00     		.ascii	"=\000"
 1459 00ba 0000     		.space	2
 1460              	.LC18:
 1461 00bc 2300     		.ascii	"#\000"
 1462 00be 0000     		.space	2
 1463              	.LC20:
 1464 00c0 2100     		.ascii	"!\000"
 1465 00c2 0000     		.space	2
ARM GAS  C:\Users\12548\AppData\Local\Temp\ccwCHJyL.s 			page 34


 1466              	.LC22:
 1467 00c4 2000     		.ascii	" \000"
 1468 00c6 0000     		.space	2
 1469              	.LC24:
 1470 00c8 5D00     		.ascii	"]\000"
 1471 00ca 0000     		.space	2
 1472              	.LC26:
 1473 00cc 0D0A3D3D 		.ascii	"\015\012==== Temperature Meter ====\015\012\000"
 1473      3D3D2054 
 1473      656D7065 
 1473      72617475 
 1473      7265204D 
 1474              	.LC28:
 1475 00ec 53686F77 		.ascii	"Shows temperature with trend\015\012\000"
 1475      73207465 
 1475      6D706572 
 1475      61747572 
 1475      65207769 
 1476 010b 00       		.space	1
 1477              	.LC32:
 1478 010c 0D54656D 		.ascii	"\015Temp: %d.%d C \000"
 1478      703A2025 
 1478      642E2564 
 1478      20432000 
 1479              	.LC34:
 1480 011c 52697369 		.ascii	"Rising  ^^^ \000"
 1480      6E672020 
 1480      5E5E5E20 
 1480      00
 1481 0129 000000   		.space	3
 1482              	.LC36:
 1483 012c 46616C6C 		.ascii	"Falling vvv \000"
 1483      696E6720 
 1483      76767620 
 1483      00
 1484 0139 000000   		.space	3
 1485              	.LC38:
 1486 013c 53746162 		.ascii	"Stable  --- \000"
 1486      6C652020 
 1486      2D2D2D20 
 1486      00
 1487 0149 000000   		.space	3
 1488              	.LC40:
 1489 014c 5B434F4C 		.ascii	"[COLD]    \000"
 1489      445D2020 
 1489      202000
 1490 0157 00       		.space	1
 1491              	.LC42:
 1492 0158 5B434F4F 		.ascii	"[COOL]    \000"
 1492      4C5D2020 
 1492      202000
 1493 0163 00       		.space	1
 1494              	.LC44:
 1495 0164 5B574152 		.ascii	"[WARM]    \000"
 1495      4D5D2020 
 1495      202000
 1496 016f 00       		.space	1
ARM GAS  C:\Users\12548\AppData\Local\Temp\ccwCHJyL.s 			page 35


 1497              	.LC46:
 1498 0170 5B484F54 		.ascii	"[HOT!]    \000"
 1498      215D2020 
 1498      202000
 1499 017b 00       		.space	1
 1500              	.LC49:
 1501 017c 2A4D4158 		.ascii	"*MAX*\000"
 1501      2A00
 1502 0182 0000     		.space	2
 1503              	.LC51:
 1504 0184 2A4D494E 		.ascii	"*MIN*\000"
 1504      2A00
 1505 018a 0000     		.space	2
 1506              	.LC53:
 1507 018c 0D0A3D3D 		.ascii	"\015\012==== Temperature Target Game ====\015\012\000"
 1507      3D3D2054 
 1507      656D7065 
 1507      72617475 
 1507      72652054 
 1508 01b2 0000     		.space	2
 1509              	.LC55:
 1510 01b4 48656174 		.ascii	"Heat the sensor to the target!\015\012\015\012\000"
 1510      20746865 
 1510      2073656E 
 1510      736F7220 
 1510      746F2074 
 1511 01d7 00       		.space	1
 1512              	.LC57:
 1513 01d8 526F756E 		.ascii	"Round %d of 3\015\012\000"
 1513      64202564 
 1513      206F6620 
 1513      330D0A00 
 1514              	.LC59:
 1515 01e8 54617267 		.ascii	"Target: %d C\015\012\000"
 1515      65743A20 
 1515      25642043 
 1515      0D0A00
 1516 01f7 00       		.space	1
 1517              	.LC61:
 1518 01f8 474F210D 		.ascii	"GO!\015\012\015\012\000"
 1518      0A0D0A00 
 1519              	.LC63:
 1520 0200 0D437572 		.ascii	"\015Current: %d C \000"
 1520      72656E74 
 1520      3A202564 
 1520      20432000 
 1521              	.LC65:
 1522 0210 5B2E2E2E 		.ascii	"[.......]\000"
 1522      2E2E2E2E 
 1522      5D00
 1523 021a 0000     		.space	2
 1524              	.LC67:
 1525 021c 5B3D3D2E 		.ascii	"[==.....]\000"
 1525      2E2E2E2E 
 1525      5D00
 1526 0226 0000     		.space	2
 1527              	.LC69:
ARM GAS  C:\Users\12548\AppData\Local\Temp\ccwCHJyL.s 			page 36


 1528 0228 5B3D3D3D 		.ascii	"[====...]\000"
 1528      3D2E2E2E 
 1528      5D00
 1529 0232 0000     		.space	2
 1530              	.LC71:
 1531 0234 5B3D3D3D 		.ascii	"[======.]\000"
 1531      3D3D3D2E 
 1531      5D00
 1532 023e 0000     		.space	2
 1533              	.LC73:
 1534 0240 5B3D3D3D 		.ascii	"[=======]\000"
 1534      3D3D3D3D 
 1534      5D00
 1535 024a 0000     		.space	2
 1536              	.LC75:
 1537 024c 20535543 		.ascii	" SUCCESS!\015\012\000"
 1537      43455353 
 1537      210D0A00 
 1538              	.LC77:
 1539 0258 0D0A4761 		.ascii	"\015\012Game Over! Final Score: %d/30\015\012\000"
 1539      6D65204F 
 1539      76657221 
 1539      2046696E 
 1539      616C2053 
 1540 027a 0000     		.space	2
 1541              	.LC79:
 1542 027c 1B5B324A 		.ascii	"\033[2J\033[H\000"
 1542      1B5B4800 
 1543              	.LC81:
 1544 0284 3D3D3D3D 		.ascii	"============================\015\012\000"
 1544      3D3D3D3D 
 1544      3D3D3D3D 
 1544      3D3D3D3D 
 1544      3D3D3D3D 
 1545 02a3 00       		.space	1
 1546              	.LC83:
 1547 02a4 20205369 		.ascii	"  Simple Temperature Fun!   \015\012\000"
 1547      6D706C65 
 1547      2054656D 
 1547      70657261 
 1547      74757265 
 1548 02c3 00       		.space	1
 1549              	.LC85:
 1550 02c4 0D0A5465 		.ascii	"\015\012Testing sensor... \000"
 1550      7374696E 
 1550      67207365 
 1550      6E736F72 
 1550      2E2E2E20 
 1551 02d9 000000   		.space	3
 1552              	.LC87:
 1553 02dc 4F4B210D 		.ascii	"OK!\015\012\000"
 1553      0A00
 1554 02e2 0000     		.space	2
 1555              	.LC89:
 1556 02e4 43757272 		.ascii	"Current temperature: %d C\015\012\000"
 1556      656E7420 
 1556      74656D70 
ARM GAS  C:\Users\12548\AppData\Local\Temp\ccwCHJyL.s 			page 37


 1556      65726174 
 1556      7572653A 
 1557              	.LC93:
 1558 0300 4641494C 		.ascii	"FAILED!\015\012\000"
 1558      4544210D 
 1558      0A00
 1559 030a 0000     		.space	2
 1560              	.LC95:
 1561 030c 43686563 		.ascii	"Check connections!\015\012\000"
 1561      6B20636F 
 1561      6E6E6563 
 1561      74696F6E 
 1561      73210D0A 
 1562 0321 000000   		.space	3
 1563              	.LC97:
 1564 0324 0D0A3D3D 		.ascii	"\015\012=== Menu ===\015\012\000"
 1564      3D204D65 
 1564      6E75203D 
 1564      3D3D0D0A 
 1564      00
 1565 0335 000000   		.space	3
 1566              	.LC99:
 1567 0338 312E2054 		.ascii	"1. Temperature Bar Graph\015\012\000"
 1567      656D7065 
 1567      72617475 
 1567      72652042 
 1567      61722047 
 1568 0353 00       		.space	1
 1569              	.LC101:
 1570 0354 322E2054 		.ascii	"2. Temperature Meter\015\012\000"
 1570      656D7065 
 1570      72617475 
 1570      7265204D 
 1570      65746572 
 1571 036b 00       		.space	1
 1572              	.LC103:
 1573 036c 332E2054 		.ascii	"3. Temperature Game\015\012\000"
 1573      656D7065 
 1573      72617475 
 1573      72652047 
 1573      616D650D 
 1574 0382 0000     		.space	2
 1575              	.LC105:
 1576 0384 0D0A5365 		.ascii	"\015\012Select (1-3): \000"
 1576      6C656374 
 1576      2028312D 
 1576      33293A20 
 1576      00
 1577 0395 000000   		.space	3
 1578              	.LC107:
 1579 0398 0D0A00   		.ascii	"\015\012\000"
 1580 039b 00       		.space	1
 1581              	.LC109:
 1582 039c 496E7661 		.ascii	"Invalid!\015\012\000"
 1582      6C696421 
 1582      0D0A00
 1583              		.bss
ARM GAS  C:\Users\12548\AppData\Local\Temp\ccwCHJyL.s 			page 38


 1584              		.align	2
 1585              		.set	.LANCHOR1,. + 0
 1586              		.type	max_temp, %object
 1587              		.size	max_temp, 4
 1588              	max_temp:
 1589 0000 00000000 		.space	4
 1590              		.text
 1591              	.Letext0:
 1592              		.file 2 "Generated_Source\\PSoC4/cytypes.h"
 1593              		.file 3 "Generated_Source\\PSoC4/OneWire_Pin.h"
 1594              		.file 4 "Generated_Source\\PSoC4/CyLib.h"
 1595              		.file 5 "Generated_Source\\PSoC4/UART_SPI_UART.h"
 1596              		.file 6 "c:\\program files (x86)\\cypress\\psoc creator\\4.4\\psoc creator\\import\\gnu\\arm\\5.4.
 1597              		.file 7 "Generated_Source\\PSoC4/UART.h"