ARM GAS  C:\Users\12548\AppData\Local\Temp\ccQzdz04.s 			page 1


   1              		.syntax unified
   2              		.cpu cortex-m0plus
   3              		.fpu softvfp
   4              		.eabi_attribute 20, 1
   5              		.eabi_attribute 21, 1
   6              		.eabi_attribute 23, 3
   7              		.eabi_attribute 24, 1
   8              		.eabi_attribute 25, 1
   9              		.eabi_attribute 26, 1
  10              		.eabi_attribute 30, 1
  11              		.eabi_attribute 34, 0
  12              		.eabi_attribute 18, 4
  13              		.thumb
  14              		.syntax unified
  15              		.file	"main.c"
  16              		.text
  17              	.Ltext0:
  18              		.cfi_sections	.debug_frame
  19              		.section	.text.uart_print,"ax",%progbits
  20              		.align	2
  21              		.global	uart_print
  22              		.code	16
  23              		.thumb_func
  24              		.type	uart_print, %function
  25              	uart_print:
  26              	.LFB34:
  27              		.file 1 "main.c"
   1:main.c        **** #include "project.h"
   2:main.c        **** #include <stdio.h>
   3:main.c        **** #include <stdlib.h>
   4:main.c        **** #include <string.h>
   5:main.c        **** 
   6:main.c        **** // ============ 步进电机参数 ============
   7:main.c        **** #define STEPS_PER_MM    100     // 200步/转 ÷ 2mm/转 = 100步/mm
   8:main.c        **** #define STEPPER_DELAY   2       // 步进脉冲延时(ms)
   9:main.c        **** 
  10:main.c        **** // ============ 伺服电机参数 ============
  11:main.c        **** #define SERVO_PERIOD    20000   // 20ms周期 (50Hz)
  12:main.c        **** #define SERVO_MIN_PULSE 500     // 0.5ms最小脉宽 (0度)
  13:main.c        **** #define SERVO_MAX_PULSE 2500    // 2.5ms最大脉宽 (180度)
  14:main.c        **** #define SERVO_CENTER    1500    // 1.5ms中心脉宽 (90度)
  15:main.c        **** 
  16:main.c        **** // ============ 系统状态 ============
  17:main.c        **** typedef enum {
  18:main.c        ****     MODE_IDLE,
  19:main.c        ****     MODE_STEPPER,
  20:main.c        ****     MODE_SERVO,
  21:main.c        ****     MODE_DEMO
  22:main.c        **** } SystemMode;
  23:main.c        **** 
  24:main.c        **** // ============ 全局变量 ============
  25:main.c        **** // 系统模式
  26:main.c        **** SystemMode current_mode = MODE_IDLE;
  27:main.c        **** 
  28:main.c        **** // 步进电机状态
  29:main.c        **** int32_t stepper_position = 0;  // 当前位置（步数）
  30:main.c        **** 
ARM GAS  C:\Users\12548\AppData\Local\Temp\ccQzdz04.s 			page 2


  31:main.c        **** // 伺服电机状态
  32:main.c        **** uint16 servo_angle = 90;       // 当前角度
  33:main.c        **** uint16 servo_pulse = SERVO_CENTER;  // 当前脉宽
  34:main.c        **** uint8 servo_sweep_active = 0;  // 自动扫描标志
  35:main.c        **** 
  36:main.c        **** // ============ 通用函数 ============
  37:main.c        **** void uart_print(const char* str) {
  28              		.loc 1 37 0
  29              		.cfi_startproc
  30              		@ args = 0, pretend = 0, frame = 0
  31              		@ frame_needed = 0, uses_anonymous_args = 0
  32              	.LVL0:
  33 0000 10B5     		push	{r4, lr}
  34              		.cfi_def_cfa_offset 8
  35              		.cfi_offset 4, -8
  36              		.cfi_offset 14, -4
  38:main.c        ****     UART_UartPutString(str);
  37              		.loc 1 38 0
  38 0002 FFF7FEFF 		bl	UART_UartPutString
  39              	.LVL1:
  39:main.c        **** }
  40              		.loc 1 39 0
  41              		@ sp needed
  42 0006 10BD     		pop	{r4, pc}
  43              		.cfi_endproc
  44              	.LFE34:
  45              		.size	uart_print, .-uart_print
  46              		.section	.text.uart_print_number,"ax",%progbits
  47              		.align	2
  48              		.global	uart_print_number
  49              		.code	16
  50              		.thumb_func
  51              		.type	uart_print_number, %function
  52              	uart_print_number:
  53              	.LFB35:
  40:main.c        **** 
  41:main.c        **** void uart_print_number(int32_t num) {
  54              		.loc 1 41 0
  55              		.cfi_startproc
  56              		@ args = 0, pretend = 0, frame = 24
  57              		@ frame_needed = 0, uses_anonymous_args = 0
  58              	.LVL2:
  59 0000 00B5     		push	{lr}
  60              		.cfi_def_cfa_offset 4
  61              		.cfi_offset 14, -4
  62 0002 87B0     		sub	sp, sp, #28
  63              		.cfi_def_cfa_offset 32
  64 0004 0200     		movs	r2, r0
  42:main.c        ****     char buffer[20];
  43:main.c        ****     sprintf(buffer, "%ld", (long)num);
  65              		.loc 1 43 0
  66 0006 0449     		ldr	r1, .L3
  67 0008 01A8     		add	r0, sp, #4
  68              	.LVL3:
  69 000a FFF7FEFF 		bl	sprintf
  70              	.LVL4:
  44:main.c        ****     uart_print(buffer);
ARM GAS  C:\Users\12548\AppData\Local\Temp\ccQzdz04.s 			page 3


  71              		.loc 1 44 0
  72 000e 01A8     		add	r0, sp, #4
  73 0010 FFF7FEFF 		bl	uart_print
  74              	.LVL5:
  45:main.c        **** }
  75              		.loc 1 45 0
  76 0014 07B0     		add	sp, sp, #28
  77              		@ sp needed
  78 0016 00BD     		pop	{pc}
  79              	.L4:
  80              		.align	2
  81              	.L3:
  82 0018 00000000 		.word	.LC0
  83              		.cfi_endproc
  84              	.LFE35:
  85              		.size	uart_print_number, .-uart_print_number
  86              		.section	.text.uart_get_char,"ax",%progbits
  87              		.align	2
  88              		.global	uart_get_char
  89              		.code	16
  90              		.thumb_func
  91              		.type	uart_get_char, %function
  92              	uart_get_char:
  93              	.LFB36:
  46:main.c        **** 
  47:main.c        **** char uart_get_char(void) {
  94              		.loc 1 47 0
  95              		.cfi_startproc
  96              		@ args = 0, pretend = 0, frame = 0
  97              		@ frame_needed = 0, uses_anonymous_args = 0
  98 0000 10B5     		push	{r4, lr}
  99              		.cfi_def_cfa_offset 8
 100              		.cfi_offset 4, -8
 101              		.cfi_offset 14, -4
  48:main.c        ****     uint32 c = UART_UartGetChar();
 102              		.loc 1 48 0
 103 0002 FFF7FEFF 		bl	UART_UartGetChar
 104              	.LVL6:
  49:main.c        ****     return (c == 0) ? 0 : (char)(c & 0xFF);
 105              		.loc 1 49 0
 106 0006 0028     		cmp	r0, #0
 107 0008 01D0     		beq	.L7
 108              		.loc 1 49 0 is_stmt 0 discriminator 1
 109 000a C0B2     		uxtb	r0, r0
 110              	.LVL7:
 111 000c 00E0     		b	.L6
 112              	.LVL8:
 113              	.L7:
 114              		.loc 1 49 0
 115 000e 0020     		movs	r0, #0
 116              	.LVL9:
 117              	.L6:
  50:main.c        **** }
 118              		.loc 1 50 0 is_stmt 1 discriminator 4
 119              		@ sp needed
 120 0010 10BD     		pop	{r4, pc}
 121              		.cfi_endproc
ARM GAS  C:\Users\12548\AppData\Local\Temp\ccQzdz04.s 			page 4


 122              	.LFE36:
 123              		.size	uart_get_char, .-uart_get_char
 124 0012 C046     		.section	.text.delay_ms,"ax",%progbits
 125              		.align	2
 126              		.global	delay_ms
 127              		.code	16
 128              		.thumb_func
 129              		.type	delay_ms, %function
 130              	delay_ms:
 131              	.LFB37:
  51:main.c        **** 
  52:main.c        **** void delay_ms(uint32 ms) {
 132              		.loc 1 52 0
 133              		.cfi_startproc
 134              		@ args = 0, pretend = 0, frame = 0
 135              		@ frame_needed = 0, uses_anonymous_args = 0
 136              	.LVL10:
 137 0000 10B5     		push	{r4, lr}
 138              		.cfi_def_cfa_offset 8
 139              		.cfi_offset 4, -8
 140              		.cfi_offset 14, -4
  53:main.c        ****     CyDelay(ms);
 141              		.loc 1 53 0
 142 0002 FFF7FEFF 		bl	CyDelay
 143              	.LVL11:
  54:main.c        **** }
 144              		.loc 1 54 0
 145              		@ sp needed
 146 0006 10BD     		pop	{r4, pc}
 147              		.cfi_endproc
 148              	.LFE37:
 149              		.size	delay_ms, .-delay_ms
 150              		.global	__aeabi_uidiv
 151              		.section	.text.delay_with_check,"ax",%progbits
 152              		.align	2
 153              		.global	delay_with_check
 154              		.code	16
 155              		.thumb_func
 156              		.type	delay_with_check, %function
 157              	delay_with_check:
 158              	.LFB38:
  55:main.c        **** 
  56:main.c        **** // 带命令检查的延时
  57:main.c        **** uint8 delay_with_check(uint32 ms) {
 159              		.loc 1 57 0
 160              		.cfi_startproc
 161              		@ args = 0, pretend = 0, frame = 0
 162              		@ frame_needed = 0, uses_anonymous_args = 0
 163              	.LVL12:
 164 0000 70B5     		push	{r4, r5, r6, lr}
 165              		.cfi_def_cfa_offset 16
 166              		.cfi_offset 4, -16
 167              		.cfi_offset 5, -12
 168              		.cfi_offset 6, -8
 169              		.cfi_offset 14, -4
  58:main.c        ****     uint32 count = ms / 10;
 170              		.loc 1 58 0
ARM GAS  C:\Users\12548\AppData\Local\Temp\ccQzdz04.s 			page 5


 171 0002 0A21     		movs	r1, #10
 172 0004 FFF7FEFF 		bl	__aeabi_uidiv
 173              	.LVL13:
 174 0008 0500     		movs	r5, r0
 175              	.LVL14:
 176              	.LBB2:
  59:main.c        ****     for(uint32 i = 0; i < count; i++) {
 177              		.loc 1 59 0
 178 000a 0024     		movs	r4, #0
 179 000c 07E0     		b	.L10
 180              	.LVL15:
 181              	.L12:
  60:main.c        ****         if(uart_get_char() != 0) {
 182              		.loc 1 60 0
 183 000e FFF7FEFF 		bl	uart_get_char
 184              	.LVL16:
 185 0012 0028     		cmp	r0, #0
 186 0014 07D1     		bne	.L13
  61:main.c        ****             return 0;  // 有按键，提前退出
  62:main.c        ****         }
  63:main.c        ****         delay_ms(10);
 187              		.loc 1 63 0 discriminator 2
 188 0016 0A30     		adds	r0, r0, #10
 189 0018 FFF7FEFF 		bl	delay_ms
 190              	.LVL17:
  59:main.c        ****         if(uart_get_char() != 0) {
 191              		.loc 1 59 0 discriminator 2
 192 001c 0134     		adds	r4, r4, #1
 193              	.LVL18:
 194              	.L10:
  59:main.c        ****         if(uart_get_char() != 0) {
 195              		.loc 1 59 0 is_stmt 0 discriminator 1
 196 001e AC42     		cmp	r4, r5
 197 0020 F5D3     		bcc	.L12
 198              	.LBE2:
  64:main.c        ****     }
  65:main.c        ****     return 1;  // 正常完成
 199              		.loc 1 65 0 is_stmt 1
 200 0022 0120     		movs	r0, #1
 201              	.LBB3:
 202 0024 00E0     		b	.L11
 203              	.L13:
  61:main.c        ****         }
 204              		.loc 1 61 0
 205 0026 0020     		movs	r0, #0
 206              	.L11:
 207              	.LBE3:
  66:main.c        **** }
 208              		.loc 1 66 0
 209              		@ sp needed
 210              	.LVL19:
 211              	.LVL20:
 212 0028 70BD     		pop	{r4, r5, r6, pc}
 213              		.cfi_endproc
 214              	.LFE38:
 215              		.size	delay_with_check, .-delay_with_check
 216              		.global	__aeabi_idivmod
ARM GAS  C:\Users\12548\AppData\Local\Temp\ccQzdz04.s 			page 6


 217              		.global	__aeabi_idiv
 218 002a C046     		.section	.text.stepper_move_mm,"ax",%progbits
 219              		.align	2
 220              		.global	stepper_move_mm
 221              		.code	16
 222              		.thumb_func
 223              		.type	stepper_move_mm, %function
 224              	stepper_move_mm:
 225              	.LFB39:
  67:main.c        **** 
  68:main.c        **** // ============ 步进电机控制函数 ============
  69:main.c        **** void stepper_move_mm(int32_t distance_mm) {
 226              		.loc 1 69 0
 227              		.cfi_startproc
 228              		@ args = 0, pretend = 0, frame = 0
 229              		@ frame_needed = 0, uses_anonymous_args = 0
 230              	.LVL21:
 231 0000 70B5     		push	{r4, r5, r6, lr}
 232              		.cfi_def_cfa_offset 16
 233              		.cfi_offset 4, -16
 234              		.cfi_offset 5, -12
 235              		.cfi_offset 6, -8
 236              		.cfi_offset 14, -4
 237 0002 0400     		movs	r4, r0
  70:main.c        ****     int32_t steps = distance_mm * STEPS_PER_MM;
 238              		.loc 1 70 0
 239 0004 6426     		movs	r6, #100
 240 0006 4643     		muls	r6, r0
 241              	.LVL22:
  71:main.c        ****     uint8_t dir = (steps > 0) ? 1 : 0;
 242              		.loc 1 71 0
 243 0008 F017     		asrs	r0, r6, #31
 244              	.LVL23:
 245 000a 801B     		subs	r0, r0, r6
 246 000c C00F     		lsrs	r0, r0, #31
 247              	.LVL24:
  72:main.c        ****     int32_t abs_steps = (steps > 0) ? steps : -steps;
 248              		.loc 1 72 0
 249 000e F317     		asrs	r3, r6, #31
 250 0010 F518     		adds	r5, r6, r3
 251 0012 5D40     		eors	r5, r3
 252              	.LVL25:
  73:main.c        ****     
  74:main.c        ****     // 设置方向
  75:main.c        ****     Pin_DIR_Write(dir);
 253              		.loc 1 75 0
 254 0014 FFF7FEFF 		bl	Pin_DIR_Write
 255              	.LVL26:
  76:main.c        ****     delay_ms(10);
 256              		.loc 1 76 0
 257 0018 0A20     		movs	r0, #10
 258 001a FFF7FEFF 		bl	delay_ms
 259              	.LVL27:
  77:main.c        ****     
  78:main.c        ****     // 显示信息
  79:main.c        ****     uart_print("STEPPER: Moving ");
 260              		.loc 1 79 0
ARM GAS  C:\Users\12548\AppData\Local\Temp\ccQzdz04.s 			page 7


 261 001e 2448     		ldr	r0, .L21
 262 0020 FFF7FEFF 		bl	uart_print
 263              	.LVL28:
  80:main.c        ****     uart_print_number(distance_mm);
 264              		.loc 1 80 0
 265 0024 2000     		movs	r0, r4
 266 0026 FFF7FEFF 		bl	uart_print_number
 267              	.LVL29:
  81:main.c        ****     uart_print(" mm (");
 268              		.loc 1 81 0
 269 002a 2248     		ldr	r0, .L21+4
 270 002c FFF7FEFF 		bl	uart_print
 271              	.LVL30:
  82:main.c        ****     uart_print_number(steps);
 272              		.loc 1 82 0
 273 0030 3000     		movs	r0, r6
 274 0032 FFF7FEFF 		bl	uart_print_number
 275              	.LVL31:
  83:main.c        ****     uart_print(" steps)\r\n");
 276              		.loc 1 83 0
 277 0036 2048     		ldr	r0, .L21+8
 278 0038 FFF7FEFF 		bl	uart_print
 279              	.LVL32:
 280              	.LBB4:
  84:main.c        ****     
  85:main.c        ****     // 执行移动
  86:main.c        ****     for(int32_t i = 0; i < abs_steps; i++) {
 281              		.loc 1 86 0
 282 003c 0024     		movs	r4, #0
 283              	.LVL33:
 284 003e 22E0     		b	.L15
 285              	.LVL34:
 286              	.L19:
  87:main.c        ****         Pin_STEP_Write(1);
 287              		.loc 1 87 0
 288 0040 0120     		movs	r0, #1
 289 0042 FFF7FEFF 		bl	Pin_STEP_Write
 290              	.LVL35:
  88:main.c        ****         delay_ms(STEPPER_DELAY);
 291              		.loc 1 88 0
 292 0046 0220     		movs	r0, #2
 293 0048 FFF7FEFF 		bl	delay_ms
 294              	.LVL36:
  89:main.c        ****         Pin_STEP_Write(0);
 295              		.loc 1 89 0
 296 004c 0020     		movs	r0, #0
 297 004e FFF7FEFF 		bl	Pin_STEP_Write
 298              	.LVL37:
  90:main.c        ****         delay_ms(STEPPER_DELAY);
 299              		.loc 1 90 0
 300 0052 0220     		movs	r0, #2
 301 0054 FFF7FEFF 		bl	delay_ms
 302              	.LVL38:
  91:main.c        ****         
  92:main.c        ****         // 检查是否有中断命令
  93:main.c        ****         if(i % 100 == 0 && uart_get_char() != 0) {
 303              		.loc 1 93 0
ARM GAS  C:\Users\12548\AppData\Local\Temp\ccQzdz04.s 			page 8


 304 0058 6421     		movs	r1, #100
 305 005a 2000     		movs	r0, r4
 306 005c FFF7FEFF 		bl	__aeabi_idivmod
 307              	.LVL39:
 308 0060 0029     		cmp	r1, #0
 309 0062 0FD1     		bne	.L16
 310              		.loc 1 93 0 is_stmt 0 discriminator 1
 311 0064 FFF7FEFF 		bl	uart_get_char
 312              	.LVL40:
 313 0068 0028     		cmp	r0, #0
 314 006a 0BD0     		beq	.L16
  94:main.c        ****             uart_print("STEPPER: Movement interrupted\r\n");
 315              		.loc 1 94 0 is_stmt 1
 316 006c 1348     		ldr	r0, .L21+12
 317 006e FFF7FEFF 		bl	uart_print
 318              	.LVL41:
  95:main.c        ****             stepper_position += (dir ? i : -i);
 319              		.loc 1 95 0
 320 0072 002E     		cmp	r6, #0
 321 0074 00DC     		bgt	.L17
 322              		.loc 1 95 0 is_stmt 0 discriminator 1
 323 0076 6442     		rsbs	r4, r4, #0
 324              	.LVL42:
 325              	.L17:
 326              		.loc 1 95 0 discriminator 4
 327 0078 114B     		ldr	r3, .L21+16
 328 007a 1A68     		ldr	r2, [r3]
 329 007c 9446     		mov	ip, r2
 330 007e 6444     		add	r4, r4, ip
 331 0080 1C60     		str	r4, [r3]
  96:main.c        ****             return;
 332              		.loc 1 96 0 is_stmt 1 discriminator 4
 333 0082 13E0     		b	.L14
 334              	.LVL43:
 335              	.L16:
  86:main.c        ****         Pin_STEP_Write(1);
 336              		.loc 1 86 0 discriminator 2
 337 0084 0134     		adds	r4, r4, #1
 338              	.LVL44:
 339              	.L15:
  86:main.c        ****         Pin_STEP_Write(1);
 340              		.loc 1 86 0 is_stmt 0 discriminator 1
 341 0086 AC42     		cmp	r4, r5
 342 0088 DADB     		blt	.L19
 343              	.LBE4:
  97:main.c        ****         }
  98:main.c        ****     }
  99:main.c        ****     
 100:main.c        ****     // 更新位置
 101:main.c        ****     stepper_position += steps;
 344              		.loc 1 101 0 is_stmt 1
 345 008a 0D4C     		ldr	r4, .L21+16
 346              	.LVL45:
 347 008c 2368     		ldr	r3, [r4]
 348 008e 9C46     		mov	ip, r3
 349 0090 6644     		add	r6, r6, ip
 350              	.LVL46:
ARM GAS  C:\Users\12548\AppData\Local\Temp\ccQzdz04.s 			page 9


 351 0092 2660     		str	r6, [r4]
 102:main.c        ****     uart_print("STEPPER: Done! Position: ");
 352              		.loc 1 102 0
 353 0094 0B48     		ldr	r0, .L21+20
 354 0096 FFF7FEFF 		bl	uart_print
 355              	.LVL47:
 103:main.c        ****     uart_print_number(stepper_position / STEPS_PER_MM);
 356              		.loc 1 103 0
 357 009a 2068     		ldr	r0, [r4]
 358 009c 6421     		movs	r1, #100
 359              	.LVL48:
 360 009e FFF7FEFF 		bl	__aeabi_idiv
 361              	.LVL49:
 362 00a2 FFF7FEFF 		bl	uart_print_number
 363              	.LVL50:
 104:main.c        ****     uart_print(" mm\r\n");
 364              		.loc 1 104 0
 365 00a6 0848     		ldr	r0, .L21+24
 366 00a8 FFF7FEFF 		bl	uart_print
 367              	.LVL51:
 368              	.L14:
 105:main.c        **** }
 369              		.loc 1 105 0
 370              		@ sp needed
 371              	.LVL52:
 372 00ac 70BD     		pop	{r4, r5, r6, pc}
 373              	.L22:
 374 00ae C046     		.align	2
 375              	.L21:
 376 00b0 04000000 		.word	.LC2
 377 00b4 18000000 		.word	.LC4
 378 00b8 20000000 		.word	.LC6
 379 00bc 2C000000 		.word	.LC8
 380 00c0 00000000 		.word	.LANCHOR0
 381 00c4 4C000000 		.word	.LC11
 382 00c8 68000000 		.word	.LC13
 383              		.cfi_endproc
 384              	.LFE39:
 385              		.size	stepper_move_mm, .-stepper_move_mm
 386              		.section	.text.stepper_move_to,"ax",%progbits
 387              		.align	2
 388              		.global	stepper_move_to
 389              		.code	16
 390              		.thumb_func
 391              		.type	stepper_move_to, %function
 392              	stepper_move_to:
 393              	.LFB40:
 106:main.c        **** 
 107:main.c        **** void stepper_move_to(int32_t position_mm) {
 394              		.loc 1 107 0
 395              		.cfi_startproc
 396              		@ args = 0, pretend = 0, frame = 0
 397              		@ frame_needed = 0, uses_anonymous_args = 0
 398              	.LVL53:
 399 0000 10B5     		push	{r4, lr}
 400              		.cfi_def_cfa_offset 8
 401              		.cfi_offset 4, -8
ARM GAS  C:\Users\12548\AppData\Local\Temp\ccQzdz04.s 			page 10


 402              		.cfi_offset 14, -4
 108:main.c        ****     int32_t target_steps = position_mm * STEPS_PER_MM;
 403              		.loc 1 108 0
 404 0002 6423     		movs	r3, #100
 405 0004 5843     		muls	r0, r3
 406              	.LVL54:
 109:main.c        ****     int32_t delta = target_steps - stepper_position;
 407              		.loc 1 109 0
 408 0006 074B     		ldr	r3, .L26
 409 0008 1B68     		ldr	r3, [r3]
 410 000a C01A     		subs	r0, r0, r3
 411              	.LVL55:
 110:main.c        ****     
 111:main.c        ****     if(delta != 0) {
 412              		.loc 1 111 0
 413 000c 05D0     		beq	.L24
 112:main.c        ****         stepper_move_mm(delta / STEPS_PER_MM);
 414              		.loc 1 112 0
 415 000e 6421     		movs	r1, #100
 416              	.LVL56:
 417 0010 FFF7FEFF 		bl	__aeabi_idiv
 418              	.LVL57:
 419 0014 FFF7FEFF 		bl	stepper_move_mm
 420              	.LVL58:
 421 0018 02E0     		b	.L23
 422              	.LVL59:
 423              	.L24:
 113:main.c        ****     } else {
 114:main.c        ****         uart_print("STEPPER: Already at position\r\n");
 424              		.loc 1 114 0
 425 001a 0348     		ldr	r0, .L26+4
 426              	.LVL60:
 427 001c FFF7FEFF 		bl	uart_print
 428              	.LVL61:
 429              	.L23:
 115:main.c        ****     }
 116:main.c        **** }
 430              		.loc 1 116 0
 431              		@ sp needed
 432 0020 10BD     		pop	{r4, pc}
 433              	.L27:
 434 0022 C046     		.align	2
 435              	.L26:
 436 0024 00000000 		.word	.LANCHOR0
 437 0028 70000000 		.word	.LC16
 438              		.cfi_endproc
 439              	.LFE40:
 440              		.size	stepper_move_to, .-stepper_move_to
 441              		.section	.text.stepper_home,"ax",%progbits
 442              		.align	2
 443              		.global	stepper_home
 444              		.code	16
 445              		.thumb_func
 446              		.type	stepper_home, %function
 447              	stepper_home:
 448              	.LFB41:
 117:main.c        **** 
ARM GAS  C:\Users\12548\AppData\Local\Temp\ccQzdz04.s 			page 11


 118:main.c        **** void stepper_home(void) {
 449              		.loc 1 118 0
 450              		.cfi_startproc
 451              		@ args = 0, pretend = 0, frame = 0
 452              		@ frame_needed = 0, uses_anonymous_args = 0
 453 0000 10B5     		push	{r4, lr}
 454              		.cfi_def_cfa_offset 8
 455              		.cfi_offset 4, -8
 456              		.cfi_offset 14, -4
 119:main.c        ****     uart_print("STEPPER: Homing...\r\n");
 457              		.loc 1 119 0
 458 0002 0648     		ldr	r0, .L29
 459 0004 FFF7FEFF 		bl	uart_print
 460              	.LVL62:
 120:main.c        ****     stepper_move_to(0);
 461              		.loc 1 120 0
 462 0008 0020     		movs	r0, #0
 463 000a FFF7FEFF 		bl	stepper_move_to
 464              	.LVL63:
 121:main.c        ****     stepper_position = 0;  // 重置位置
 465              		.loc 1 121 0
 466 000e 0022     		movs	r2, #0
 467 0010 034B     		ldr	r3, .L29+4
 468 0012 1A60     		str	r2, [r3]
 122:main.c        ****     uart_print("STEPPER: Home position set\r\n");
 469              		.loc 1 122 0
 470 0014 0348     		ldr	r0, .L29+8
 471 0016 FFF7FEFF 		bl	uart_print
 472              	.LVL64:
 123:main.c        **** }
 473              		.loc 1 123 0
 474              		@ sp needed
 475 001a 10BD     		pop	{r4, pc}
 476              	.L30:
 477              		.align	2
 478              	.L29:
 479 001c 90000000 		.word	.LC18
 480 0020 00000000 		.word	.LANCHOR0
 481 0024 A8000000 		.word	.LC21
 482              		.cfi_endproc
 483              	.LFE41:
 484              		.size	stepper_home, .-stepper_home
 485              		.section	.text.servo_set_angle,"ax",%progbits
 486              		.align	2
 487              		.global	servo_set_angle
 488              		.code	16
 489              		.thumb_func
 490              		.type	servo_set_angle, %function
 491              	servo_set_angle:
 492              	.LFB42:
 124:main.c        **** 
 125:main.c        **** // ============ 伺服电机控制函数 ============
 126:main.c        **** void servo_set_angle(uint16 angle) {
 493              		.loc 1 126 0
 494              		.cfi_startproc
 495              		@ args = 0, pretend = 0, frame = 0
 496              		@ frame_needed = 0, uses_anonymous_args = 0
ARM GAS  C:\Users\12548\AppData\Local\Temp\ccQzdz04.s 			page 12


 497              	.LVL65:
 498 0000 70B5     		push	{r4, r5, r6, lr}
 499              		.cfi_def_cfa_offset 16
 500              		.cfi_offset 4, -16
 501              		.cfi_offset 5, -12
 502              		.cfi_offset 6, -8
 503              		.cfi_offset 14, -4
 504 0002 0500     		movs	r5, r0
 127:main.c        ****     uint16 pulse_width;
 128:main.c        ****     
 129:main.c        ****     // 限制角度范围
 130:main.c        ****     if(angle > 180) angle = 180;
 505              		.loc 1 130 0
 506 0004 B428     		cmp	r0, #180
 507 0006 00D9     		bls	.L32
 508 0008 B425     		movs	r5, #180
 509              	.L32:
 510              	.LVL66:
 131:main.c        ****     
 132:main.c        ****     // 计算脉宽
 133:main.c        ****     pulse_width = SERVO_MIN_PULSE + (angle * (SERVO_MAX_PULSE - SERVO_MIN_PULSE)) / 180;
 511              		.loc 1 133 0
 512 000a FA20     		movs	r0, #250
 513 000c C000     		lsls	r0, r0, #3
 514 000e 6843     		muls	r0, r5
 515 0010 B421     		movs	r1, #180
 516 0012 FFF7FEFF 		bl	__aeabi_idiv
 517              	.LVL67:
 518 0016 F530     		adds	r0, r0, #245
 519 0018 FF30     		adds	r0, r0, #255
 520 001a 84B2     		uxth	r4, r0
 521              	.LVL68:
 134:main.c        ****     
 135:main.c        ****     // 设置PWM比较值
 136:main.c        ****     PWM_Servo_WriteCompare(pulse_width);
 522              		.loc 1 136 0
 523 001c 2000     		movs	r0, r4
 524 001e FFF7FEFF 		bl	PWM_Servo_WriteCompare
 525              	.LVL69:
 137:main.c        ****     
 138:main.c        ****     // 更新全局变量
 139:main.c        ****     servo_angle = angle;
 526              		.loc 1 139 0
 527 0022 094B     		ldr	r3, .L34
 528 0024 1D80     		strh	r5, [r3]
 140:main.c        ****     servo_pulse = pulse_width;
 529              		.loc 1 140 0
 530 0026 5C80     		strh	r4, [r3, #2]
 141:main.c        ****     
 142:main.c        ****     // 显示信息
 143:main.c        ****     uart_print("SERVO: Angle: ");
 531              		.loc 1 143 0
 532 0028 0848     		ldr	r0, .L34+4
 533 002a FFF7FEFF 		bl	uart_print
 534              	.LVL70:
 144:main.c        ****     uart_print_number(angle);
 535              		.loc 1 144 0
ARM GAS  C:\Users\12548\AppData\Local\Temp\ccQzdz04.s 			page 13


 536 002e 2800     		movs	r0, r5
 537 0030 FFF7FEFF 		bl	uart_print_number
 538              	.LVL71:
 145:main.c        ****     uart_print("°, Pulse: ");
 539              		.loc 1 145 0
 540 0034 0648     		ldr	r0, .L34+8
 541 0036 FFF7FEFF 		bl	uart_print
 542              	.LVL72:
 146:main.c        ****     uart_print_number(pulse_width);
 543              		.loc 1 146 0
 544 003a 2000     		movs	r0, r4
 545 003c FFF7FEFF 		bl	uart_print_number
 546              	.LVL73:
 147:main.c        ****     uart_print("us\r\n");
 547              		.loc 1 147 0
 548 0040 0448     		ldr	r0, .L34+12
 549 0042 FFF7FEFF 		bl	uart_print
 550              	.LVL74:
 148:main.c        **** }
 551              		.loc 1 148 0
 552              		@ sp needed
 553              	.LVL75:
 554              	.LVL76:
 555 0046 70BD     		pop	{r4, r5, r6, pc}
 556              	.L35:
 557              		.align	2
 558              	.L34:
 559 0048 00000000 		.word	.LANCHOR1
 560 004c C8000000 		.word	.LC24
 561 0050 D8000000 		.word	.LC26
 562 0054 E4000000 		.word	.LC28
 563              		.cfi_endproc
 564              	.LFE42:
 565              		.size	servo_set_angle, .-servo_set_angle
 566              		.section	.text.servo_sweep,"ax",%progbits
 567              		.align	2
 568              		.global	servo_sweep
 569              		.code	16
 570              		.thumb_func
 571              		.type	servo_sweep, %function
 572              	servo_sweep:
 573              	.LFB43:
 149:main.c        **** 
 150:main.c        **** void servo_sweep(void) {
 574              		.loc 1 150 0
 575              		.cfi_startproc
 576              		@ args = 0, pretend = 0, frame = 0
 577              		@ frame_needed = 0, uses_anonymous_args = 0
 578 0000 10B5     		push	{r4, lr}
 579              		.cfi_def_cfa_offset 8
 580              		.cfi_offset 4, -8
 581              		.cfi_offset 14, -4
 151:main.c        ****     uint16 angle;
 152:main.c        ****     
 153:main.c        ****     uart_print("SERVO: Starting sweep...\r\n");
 582              		.loc 1 153 0
 583 0002 2548     		ldr	r0, .L47
ARM GAS  C:\Users\12548\AppData\Local\Temp\ccQzdz04.s 			page 14


 584 0004 FFF7FEFF 		bl	uart_print
 585              	.LVL77:
 154:main.c        ****     servo_sweep_active = 1;
 586              		.loc 1 154 0
 587 0008 0122     		movs	r2, #1
 588 000a 244B     		ldr	r3, .L47+4
 589 000c 1A71     		strb	r2, [r3, #4]
 590              	.LVL78:
 155:main.c        ****     
 156:main.c        ****     // 0到180度扫描
 157:main.c        ****     for(angle = 0; angle <= 180 && servo_sweep_active; angle += 30) {
 591              		.loc 1 157 0
 592 000e 0024     		movs	r4, #0
 593 0010 11E0     		b	.L37
 594              	.LVL79:
 595              	.L41:
 158:main.c        ****         servo_set_angle(angle);
 596              		.loc 1 158 0
 597 0012 2000     		movs	r0, r4
 598 0014 FFF7FEFF 		bl	servo_set_angle
 599              	.LVL80:
 159:main.c        ****         if(!delay_with_check(1000)) {
 600              		.loc 1 159 0
 601 0018 FA20     		movs	r0, #250
 602 001a 8000     		lsls	r0, r0, #2
 603 001c FFF7FEFF 		bl	delay_with_check
 604              	.LVL81:
 605 0020 0028     		cmp	r0, #0
 606 0022 06D1     		bne	.L38
 160:main.c        ****             servo_sweep_active = 0;
 607              		.loc 1 160 0
 608 0024 0022     		movs	r2, #0
 609 0026 1D4B     		ldr	r3, .L47+4
 610 0028 1A71     		strb	r2, [r3, #4]
 161:main.c        ****             uart_print("SERVO: Sweep stopped\r\n");
 611              		.loc 1 161 0
 612 002a 1D48     		ldr	r0, .L47+8
 613 002c FFF7FEFF 		bl	uart_print
 614              	.LVL82:
 162:main.c        ****             return;
 615              		.loc 1 162 0
 616 0030 30E0     		b	.L36
 617              	.L38:
 157:main.c        ****         servo_set_angle(angle);
 618              		.loc 1 157 0 discriminator 2
 619 0032 1E34     		adds	r4, r4, #30
 620              	.LVL83:
 621 0034 A4B2     		uxth	r4, r4
 622              	.LVL84:
 623              	.L37:
 157:main.c        ****         servo_set_angle(angle);
 624              		.loc 1 157 0 is_stmt 0 discriminator 1
 625 0036 B42C     		cmp	r4, #180
 626 0038 18D8     		bhi	.L46
 157:main.c        ****         servo_set_angle(angle);
 627              		.loc 1 157 0 discriminator 3
 628 003a 184B     		ldr	r3, .L47+4
ARM GAS  C:\Users\12548\AppData\Local\Temp\ccQzdz04.s 			page 15


 629 003c 1B79     		ldrb	r3, [r3, #4]
 630 003e 002B     		cmp	r3, #0
 631 0040 E7D1     		bne	.L41
 632 0042 B424     		movs	r4, #180
 633              	.LVL85:
 634 0044 13E0     		b	.L40
 635              	.LVL86:
 636              	.L44:
 163:main.c        ****         }
 164:main.c        ****     }
 165:main.c        ****     
 166:main.c        ****     // 180到0度扫描
 167:main.c        ****     for(angle = 180; angle > 0 && servo_sweep_active; angle -= 30) {
 168:main.c        ****         servo_set_angle(angle);
 637              		.loc 1 168 0 is_stmt 1
 638 0046 2000     		movs	r0, r4
 639 0048 FFF7FEFF 		bl	servo_set_angle
 640              	.LVL87:
 169:main.c        ****         if(!delay_with_check(1000)) {
 641              		.loc 1 169 0
 642 004c FA20     		movs	r0, #250
 643 004e 8000     		lsls	r0, r0, #2
 644 0050 FFF7FEFF 		bl	delay_with_check
 645              	.LVL88:
 646 0054 0028     		cmp	r0, #0
 647 0056 06D1     		bne	.L42
 170:main.c        ****             servo_sweep_active = 0;
 648              		.loc 1 170 0
 649 0058 0022     		movs	r2, #0
 650 005a 104B     		ldr	r3, .L47+4
 651 005c 1A71     		strb	r2, [r3, #4]
 171:main.c        ****             uart_print("SERVO: Sweep stopped\r\n");
 652              		.loc 1 171 0
 653 005e 1048     		ldr	r0, .L47+8
 654 0060 FFF7FEFF 		bl	uart_print
 655              	.LVL89:
 172:main.c        ****             return;
 656              		.loc 1 172 0
 657 0064 16E0     		b	.L36
 658              	.L42:
 167:main.c        ****         servo_set_angle(angle);
 659              		.loc 1 167 0 discriminator 2
 660 0066 1E3C     		subs	r4, r4, #30
 661              	.LVL90:
 662 0068 A4B2     		uxth	r4, r4
 663              	.LVL91:
 664 006a 00E0     		b	.L40
 665              	.L46:
 666 006c B424     		movs	r4, #180
 667              	.LVL92:
 668              	.L40:
 167:main.c        ****         servo_set_angle(angle);
 669              		.loc 1 167 0 is_stmt 0 discriminator 1
 670 006e 002C     		cmp	r4, #0
 671 0070 03D0     		beq	.L43
 167:main.c        ****         servo_set_angle(angle);
 672              		.loc 1 167 0 discriminator 3
ARM GAS  C:\Users\12548\AppData\Local\Temp\ccQzdz04.s 			page 16


 673 0072 0A4B     		ldr	r3, .L47+4
 674 0074 1B79     		ldrb	r3, [r3, #4]
 675 0076 002B     		cmp	r3, #0
 676 0078 E5D1     		bne	.L44
 677              	.L43:
 173:main.c        ****         }
 174:main.c        ****     }
 175:main.c        ****     
 176:main.c        ****     // 返回中心
 177:main.c        ****     if(servo_sweep_active) {
 678              		.loc 1 177 0 is_stmt 1
 679 007a 084B     		ldr	r3, .L47+4
 680 007c 1B79     		ldrb	r3, [r3, #4]
 681 007e 002B     		cmp	r3, #0
 682 0080 05D0     		beq	.L45
 178:main.c        ****         servo_set_angle(90);
 683              		.loc 1 178 0
 684 0082 5A20     		movs	r0, #90
 685 0084 FFF7FEFF 		bl	servo_set_angle
 686              	.LVL93:
 179:main.c        ****         uart_print("SERVO: Sweep complete, centered\r\n");
 687              		.loc 1 179 0
 688 0088 0648     		ldr	r0, .L47+12
 689 008a FFF7FEFF 		bl	uart_print
 690              	.LVL94:
 691              	.L45:
 180:main.c        ****     }
 181:main.c        ****     servo_sweep_active = 0;
 692              		.loc 1 181 0
 693 008e 0022     		movs	r2, #0
 694 0090 024B     		ldr	r3, .L47+4
 695 0092 1A71     		strb	r2, [r3, #4]
 696              	.L36:
 182:main.c        **** }
 697              		.loc 1 182 0
 698              		@ sp needed
 699              	.LVL95:
 700 0094 10BD     		pop	{r4, pc}
 701              	.L48:
 702 0096 C046     		.align	2
 703              	.L47:
 704 0098 EC000000 		.word	.LC30
 705 009c 00000000 		.word	.LANCHOR0
 706 00a0 08010000 		.word	.LC33
 707 00a4 20010000 		.word	.LC35
 708              		.cfi_endproc
 709              	.LFE43:
 710              		.size	servo_sweep, .-servo_sweep
 711              		.section	.text.run_demo,"ax",%progbits
 712              		.align	2
 713              		.global	run_demo
 714              		.code	16
 715              		.thumb_func
 716              		.type	run_demo, %function
 717              	run_demo:
 718              	.LFB44:
 183:main.c        **** 
ARM GAS  C:\Users\12548\AppData\Local\Temp\ccQzdz04.s 			page 17


 184:main.c        **** // ============ 综合演示函数 ============
 185:main.c        **** void run_demo(void) {
 719              		.loc 1 185 0
 720              		.cfi_startproc
 721              		@ args = 0, pretend = 0, frame = 0
 722              		@ frame_needed = 0, uses_anonymous_args = 0
 723 0000 10B5     		push	{r4, lr}
 724              		.cfi_def_cfa_offset 8
 725              		.cfi_offset 4, -8
 726              		.cfi_offset 14, -4
 186:main.c        ****     uart_print("\r\n=== STARTING DEMO MODE ===\r\n");
 727              		.loc 1 186 0
 728 0002 3C48     		ldr	r0, .L53
 729 0004 FFF7FEFF 		bl	uart_print
 730              	.LVL96:
 187:main.c        ****     uart_print("Press any key to stop...\r\n\r\n");
 731              		.loc 1 187 0
 732 0008 3B48     		ldr	r0, .L53+4
 733 000a FFF7FEFF 		bl	uart_print
 734              	.LVL97:
 188:main.c        ****     
 189:main.c        ****     // 步进电机演示
 190:main.c        ****     uart_print("--- Stepper Motor Demo ---\r\n");
 735              		.loc 1 190 0
 736 000e 3B48     		ldr	r0, .L53+8
 737 0010 FFF7FEFF 		bl	uart_print
 738              	.LVL98:
 191:main.c        ****     stepper_move_mm(30);
 739              		.loc 1 191 0
 740 0014 1E20     		movs	r0, #30
 741 0016 FFF7FEFF 		bl	stepper_move_mm
 742              	.LVL99:
 192:main.c        ****     if(!delay_with_check(1000)) return;
 743              		.loc 1 192 0
 744 001a FA20     		movs	r0, #250
 745 001c 8000     		lsls	r0, r0, #2
 746 001e FFF7FEFF 		bl	delay_with_check
 747              	.LVL100:
 748 0022 0028     		cmp	r0, #0
 749 0024 65D0     		beq	.L49
 193:main.c        ****     stepper_move_mm(-30);
 750              		.loc 1 193 0
 751 0026 1E20     		movs	r0, #30
 752 0028 4042     		rsbs	r0, r0, #0
 753 002a FFF7FEFF 		bl	stepper_move_mm
 754              	.LVL101:
 194:main.c        ****     if(!delay_with_check(1000)) return;
 755              		.loc 1 194 0
 756 002e FA20     		movs	r0, #250
 757 0030 8000     		lsls	r0, r0, #2
 758 0032 FFF7FEFF 		bl	delay_with_check
 759              	.LVL102:
 760 0036 0028     		cmp	r0, #0
 761 0038 5BD0     		beq	.L49
 195:main.c        ****     
 196:main.c        ****     // 伺服电机演示
 197:main.c        ****     uart_print("\r\n--- Servo Motor Demo ---\r\n");
ARM GAS  C:\Users\12548\AppData\Local\Temp\ccQzdz04.s 			page 18


 762              		.loc 1 197 0
 763 003a 3148     		ldr	r0, .L53+12
 764 003c FFF7FEFF 		bl	uart_print
 765              	.LVL103:
 198:main.c        ****     servo_set_angle(0);
 766              		.loc 1 198 0
 767 0040 0020     		movs	r0, #0
 768 0042 FFF7FEFF 		bl	servo_set_angle
 769              	.LVL104:
 199:main.c        ****     if(!delay_with_check(1000)) return;
 770              		.loc 1 199 0
 771 0046 FA20     		movs	r0, #250
 772 0048 8000     		lsls	r0, r0, #2
 773 004a FFF7FEFF 		bl	delay_with_check
 774              	.LVL105:
 775 004e 0028     		cmp	r0, #0
 776 0050 4FD0     		beq	.L49
 200:main.c        ****     servo_set_angle(90);
 777              		.loc 1 200 0
 778 0052 5A20     		movs	r0, #90
 779 0054 FFF7FEFF 		bl	servo_set_angle
 780              	.LVL106:
 201:main.c        ****     if(!delay_with_check(1000)) return;
 781              		.loc 1 201 0
 782 0058 FA20     		movs	r0, #250
 783 005a 8000     		lsls	r0, r0, #2
 784 005c FFF7FEFF 		bl	delay_with_check
 785              	.LVL107:
 786 0060 0028     		cmp	r0, #0
 787 0062 46D0     		beq	.L49
 202:main.c        ****     servo_set_angle(180);
 788              		.loc 1 202 0
 789 0064 B420     		movs	r0, #180
 790 0066 FFF7FEFF 		bl	servo_set_angle
 791              	.LVL108:
 203:main.c        ****     if(!delay_with_check(1000)) return;
 792              		.loc 1 203 0
 793 006a FA20     		movs	r0, #250
 794 006c 8000     		lsls	r0, r0, #2
 795 006e FFF7FEFF 		bl	delay_with_check
 796              	.LVL109:
 797 0072 0028     		cmp	r0, #0
 798 0074 3DD0     		beq	.L49
 204:main.c        ****     servo_set_angle(90);
 799              		.loc 1 204 0
 800 0076 5A20     		movs	r0, #90
 801 0078 FFF7FEFF 		bl	servo_set_angle
 802              	.LVL110:
 205:main.c        ****     if(!delay_with_check(1000)) return;
 803              		.loc 1 205 0
 804 007c FA20     		movs	r0, #250
 805 007e 8000     		lsls	r0, r0, #2
 806 0080 FFF7FEFF 		bl	delay_with_check
 807              	.LVL111:
 808 0084 0028     		cmp	r0, #0
 809 0086 34D0     		beq	.L49
 206:main.c        ****     
ARM GAS  C:\Users\12548\AppData\Local\Temp\ccQzdz04.s 			page 19


 207:main.c        ****     // 协同动作演示
 208:main.c        ****     uart_print("\r\n--- Coordinated Demo ---\r\n");
 810              		.loc 1 208 0
 811 0088 1E48     		ldr	r0, .L53+16
 812 008a FFF7FEFF 		bl	uart_print
 813              	.LVL112:
 814              	.LBB5:
 209:main.c        ****     for(int i = 0; i < 3; i++) {
 815              		.loc 1 209 0
 816 008e 0024     		movs	r4, #0
 817 0090 22E0     		b	.L51
 818              	.LVL113:
 819              	.L52:
 210:main.c        ****         uart_print("Cycle ");
 820              		.loc 1 210 0
 821 0092 1D48     		ldr	r0, .L53+20
 822 0094 FFF7FEFF 		bl	uart_print
 823              	.LVL114:
 211:main.c        ****         uart_print_number(i + 1);
 824              		.loc 1 211 0
 825 0098 0134     		adds	r4, r4, #1
 826              	.LVL115:
 827 009a 2000     		movs	r0, r4
 828 009c FFF7FEFF 		bl	uart_print_number
 829              	.LVL116:
 212:main.c        ****         uart_print("\r\n");
 830              		.loc 1 212 0
 831 00a0 1A48     		ldr	r0, .L53+24
 832 00a2 FFF7FEFF 		bl	uart_print
 833              	.LVL117:
 213:main.c        ****         
 214:main.c        ****         stepper_move_mm(20);
 834              		.loc 1 214 0
 835 00a6 1420     		movs	r0, #20
 836 00a8 FFF7FEFF 		bl	stepper_move_mm
 837              	.LVL118:
 215:main.c        ****         servo_set_angle(45);
 838              		.loc 1 215 0
 839 00ac 2D20     		movs	r0, #45
 840 00ae FFF7FEFF 		bl	servo_set_angle
 841              	.LVL119:
 216:main.c        ****         if(!delay_with_check(500)) return;
 842              		.loc 1 216 0
 843 00b2 FA20     		movs	r0, #250
 844 00b4 4000     		lsls	r0, r0, #1
 845 00b6 FFF7FEFF 		bl	delay_with_check
 846              	.LVL120:
 847 00ba 0028     		cmp	r0, #0
 848 00bc 19D0     		beq	.L49
 217:main.c        ****         
 218:main.c        ****         stepper_move_mm(-20);
 849              		.loc 1 218 0
 850 00be 1420     		movs	r0, #20
 851 00c0 4042     		rsbs	r0, r0, #0
 852 00c2 FFF7FEFF 		bl	stepper_move_mm
 853              	.LVL121:
 219:main.c        ****         servo_set_angle(135);
ARM GAS  C:\Users\12548\AppData\Local\Temp\ccQzdz04.s 			page 20


 854              		.loc 1 219 0
 855 00c6 8720     		movs	r0, #135
 856 00c8 FFF7FEFF 		bl	servo_set_angle
 857              	.LVL122:
 220:main.c        ****         if(!delay_with_check(500)) return;
 858              		.loc 1 220 0
 859 00cc FA20     		movs	r0, #250
 860 00ce 4000     		lsls	r0, r0, #1
 861 00d0 FFF7FEFF 		bl	delay_with_check
 862              	.LVL123:
 863 00d4 0028     		cmp	r0, #0
 864 00d6 0CD0     		beq	.L49
 865              	.LVL124:
 866              	.L51:
 209:main.c        ****         uart_print("Cycle ");
 867              		.loc 1 209 0 discriminator 1
 868 00d8 022C     		cmp	r4, #2
 869 00da DADD     		ble	.L52
 870              	.LBE5:
 221:main.c        ****     }
 222:main.c        ****     
 223:main.c        ****     // 复位
 224:main.c        ****     uart_print("\r\n--- Resetting to home ---\r\n");
 871              		.loc 1 224 0
 872 00dc 0C48     		ldr	r0, .L53+28
 873 00de FFF7FEFF 		bl	uart_print
 874              	.LVL125:
 225:main.c        ****     stepper_home();
 875              		.loc 1 225 0
 876 00e2 FFF7FEFF 		bl	stepper_home
 877              	.LVL126:
 226:main.c        ****     servo_set_angle(90);
 878              		.loc 1 226 0
 879 00e6 5A20     		movs	r0, #90
 880 00e8 FFF7FEFF 		bl	servo_set_angle
 881              	.LVL127:
 227:main.c        ****     
 228:main.c        ****     uart_print("\r\n=== DEMO COMPLETE ===\r\n");
 882              		.loc 1 228 0
 883 00ec 0948     		ldr	r0, .L53+32
 884 00ee FFF7FEFF 		bl	uart_print
 885              	.LVL128:
 886              	.L49:
 229:main.c        **** }
 887              		.loc 1 229 0
 888              		@ sp needed
 889 00f2 10BD     		pop	{r4, pc}
 890              	.L54:
 891              		.align	2
 892              	.L53:
 893 00f4 44010000 		.word	.LC37
 894 00f8 64010000 		.word	.LC39
 895 00fc 84010000 		.word	.LC41
 896 0100 A4010000 		.word	.LC43
 897 0104 C4010000 		.word	.LC45
 898 0108 E4010000 		.word	.LC47
 899 010c EC010000 		.word	.LC49
ARM GAS  C:\Users\12548\AppData\Local\Temp\ccQzdz04.s 			page 21


 900 0110 F0010000 		.word	.LC51
 901 0114 10020000 		.word	.LC53
 902              		.cfi_endproc
 903              	.LFE44:
 904              		.size	run_demo, .-run_demo
 905              		.section	.text.show_help,"ax",%progbits
 906              		.align	2
 907              		.global	show_help
 908              		.code	16
 909              		.thumb_func
 910              		.type	show_help, %function
 911              	show_help:
 912              	.LFB45:
 230:main.c        **** 
 231:main.c        **** // ============ 命令处理函数 ============
 232:main.c        **** void show_help(void) {
 913              		.loc 1 232 0
 914              		.cfi_startproc
 915              		@ args = 0, pretend = 0, frame = 0
 916              		@ frame_needed = 0, uses_anonymous_args = 0
 917 0000 10B5     		push	{r4, lr}
 918              		.cfi_def_cfa_offset 8
 919              		.cfi_offset 4, -8
 920              		.cfi_offset 14, -4
 233:main.c        ****     uart_print("\r\n========== MOTOR CONTROL SYSTEM ==========\r\n");
 921              		.loc 1 233 0
 922 0002 2148     		ldr	r0, .L56
 923 0004 FFF7FEFF 		bl	uart_print
 924              	.LVL129:
 234:main.c        ****     uart_print("GENERAL COMMANDS:\r\n");
 925              		.loc 1 234 0
 926 0008 2048     		ldr	r0, .L56+4
 927 000a FFF7FEFF 		bl	uart_print
 928              	.LVL130:
 235:main.c        ****     uart_print("  M1  - Switch to Stepper mode\r\n");
 929              		.loc 1 235 0
 930 000e 2048     		ldr	r0, .L56+8
 931 0010 FFF7FEFF 		bl	uart_print
 932              	.LVL131:
 236:main.c        ****     uart_print("  M2  - Switch to Servo mode\r\n");
 933              		.loc 1 236 0
 934 0014 1F48     		ldr	r0, .L56+12
 935 0016 FFF7FEFF 		bl	uart_print
 936              	.LVL132:
 237:main.c        ****     uart_print("  D   - Run demo (both motors)\r\n");
 937              		.loc 1 237 0
 938 001a 1F48     		ldr	r0, .L56+16
 939 001c FFF7FEFF 		bl	uart_print
 940              	.LVL133:
 238:main.c        ****     uart_print("  S   - Show status\r\n");
 941              		.loc 1 238 0
 942 0020 1E48     		ldr	r0, .L56+20
 943 0022 FFF7FEFF 		bl	uart_print
 944              	.LVL134:
 239:main.c        ****     uart_print("  H/? - Show this help\r\n");
 945              		.loc 1 239 0
 946 0026 1E48     		ldr	r0, .L56+24
ARM GAS  C:\Users\12548\AppData\Local\Temp\ccQzdz04.s 			page 22


 947 0028 FFF7FEFF 		bl	uart_print
 948              	.LVL135:
 240:main.c        ****     uart_print("\r\nSTEPPER COMMANDS (Mode 1):\r\n");
 949              		.loc 1 240 0
 950 002c 1D48     		ldr	r0, .L56+28
 951 002e FFF7FEFF 		bl	uart_print
 952              	.LVL136:
 241:main.c        ****     uart_print("  1   - Move up/down 50mm\r\n");
 953              		.loc 1 241 0
 954 0032 1D48     		ldr	r0, .L56+32
 955 0034 FFF7FEFF 		bl	uart_print
 956              	.LVL137:
 242:main.c        ****     uart_print("  2   - Go home (0mm)\r\n");
 957              		.loc 1 242 0
 958 0038 1C48     		ldr	r0, .L56+36
 959 003a FFF7FEFF 		bl	uart_print
 960              	.LVL138:
 243:main.c        ****     uart_print("  3   - Go to 50mm\r\n");
 961              		.loc 1 243 0
 962 003e 1C48     		ldr	r0, .L56+40
 963 0040 FFF7FEFF 		bl	uart_print
 964              	.LVL139:
 244:main.c        ****     uart_print("  4   - Continuous test\r\n");
 965              		.loc 1 244 0
 966 0044 1B48     		ldr	r0, .L56+44
 967 0046 FFF7FEFF 		bl	uart_print
 968              	.LVL140:
 245:main.c        ****     uart_print("  U   - Move up 10mm\r\n");
 969              		.loc 1 245 0
 970 004a 1B48     		ldr	r0, .L56+48
 971 004c FFF7FEFF 		bl	uart_print
 972              	.LVL141:
 246:main.c        ****     uart_print("  J   - Move down 10mm\r\n");
 973              		.loc 1 246 0
 974 0050 1A48     		ldr	r0, .L56+52
 975 0052 FFF7FEFF 		bl	uart_print
 976              	.LVL142:
 247:main.c        ****     uart_print("\r\nSERVO COMMANDS (Mode 2):\r\n");
 977              		.loc 1 247 0
 978 0056 1A48     		ldr	r0, .L56+56
 979 0058 FFF7FEFF 		bl	uart_print
 980              	.LVL143:
 248:main.c        ****     uart_print("  A<angle> - Set angle (0-180)\r\n");
 981              		.loc 1 248 0
 982 005c 1948     		ldr	r0, .L56+60
 983 005e FFF7FEFF 		bl	uart_print
 984              	.LVL144:
 249:main.c        ****     uart_print("  W   - Start sweep\r\n");
 985              		.loc 1 249 0
 986 0062 1948     		ldr	r0, .L56+64
 987 0064 FFF7FEFF 		bl	uart_print
 988              	.LVL145:
 250:main.c        ****     uart_print("  P   - Stop sweep\r\n");
 989              		.loc 1 250 0
 990 0068 1848     		ldr	r0, .L56+68
 991 006a FFF7FEFF 		bl	uart_print
 992              	.LVL146:
ARM GAS  C:\Users\12548\AppData\Local\Temp\ccQzdz04.s 			page 23


 251:main.c        ****     uart_print("  0   - Go to 0°\r\n");
 993              		.loc 1 251 0
 994 006e 1848     		ldr	r0, .L56+72
 995 0070 FFF7FEFF 		bl	uart_print
 996              	.LVL147:
 252:main.c        ****     uart_print("  5   - Go to 90°\r\n");
 997              		.loc 1 252 0
 998 0074 1748     		ldr	r0, .L56+76
 999 0076 FFF7FEFF 		bl	uart_print
 1000              	.LVL148:
 253:main.c        ****     uart_print("  9   - Go to 180°\r\n");
 1001              		.loc 1 253 0
 1002 007a 1748     		ldr	r0, .L56+80
 1003 007c FFF7FEFF 		bl	uart_print
 1004              	.LVL149:
 254:main.c        ****     uart_print("==========================================\r\n\r\n");
 1005              		.loc 1 254 0
 1006 0080 1648     		ldr	r0, .L56+84
 1007 0082 FFF7FEFF 		bl	uart_print
 1008              	.LVL150:
 255:main.c        **** }
 1009              		.loc 1 255 0
 1010              		@ sp needed
 1011 0086 10BD     		pop	{r4, pc}
 1012              	.L57:
 1013              		.align	2
 1014              	.L56:
 1015 0088 2C020000 		.word	.LC55
 1016 008c 5C020000 		.word	.LC57
 1017 0090 70020000 		.word	.LC59
 1018 0094 94020000 		.word	.LC61
 1019 0098 B4020000 		.word	.LC63
 1020 009c D8020000 		.word	.LC65
 1021 00a0 F0020000 		.word	.LC67
 1022 00a4 0C030000 		.word	.LC69
 1023 00a8 2C030000 		.word	.LC71
 1024 00ac 48030000 		.word	.LC73
 1025 00b0 60030000 		.word	.LC75
 1026 00b4 78030000 		.word	.LC77
 1027 00b8 94030000 		.word	.LC79
 1028 00bc AC030000 		.word	.LC81
 1029 00c0 C8030000 		.word	.LC83
 1030 00c4 E8030000 		.word	.LC85
 1031 00c8 0C040000 		.word	.LC87
 1032 00cc 24040000 		.word	.LC89
 1033 00d0 3C040000 		.word	.LC91
 1034 00d4 50040000 		.word	.LC93
 1035 00d8 68040000 		.word	.LC95
 1036 00dc 80040000 		.word	.LC97
 1037              		.cfi_endproc
 1038              	.LFE45:
 1039              		.size	show_help, .-show_help
 1040              		.section	.text.show_status,"ax",%progbits
 1041              		.align	2
 1042              		.global	show_status
 1043              		.code	16
 1044              		.thumb_func
ARM GAS  C:\Users\12548\AppData\Local\Temp\ccQzdz04.s 			page 24


 1045              		.type	show_status, %function
 1046              	show_status:
 1047              	.LFB46:
 256:main.c        **** 
 257:main.c        **** void show_status(void) {
 1048              		.loc 1 257 0
 1049              		.cfi_startproc
 1050              		@ args = 0, pretend = 0, frame = 0
 1051              		@ frame_needed = 0, uses_anonymous_args = 0
 1052 0000 10B5     		push	{r4, lr}
 1053              		.cfi_def_cfa_offset 8
 1054              		.cfi_offset 4, -8
 1055              		.cfi_offset 14, -4
 258:main.c        ****     uart_print("\r\n=== SYSTEM STATUS ===\r\n");
 1056              		.loc 1 258 0
 1057 0002 2548     		ldr	r0, .L64
 1058 0004 FFF7FEFF 		bl	uart_print
 1059              	.LVL151:
 259:main.c        ****     
 260:main.c        ****     uart_print("Mode: ");
 1060              		.loc 1 260 0
 1061 0008 2448     		ldr	r0, .L64+4
 1062 000a FFF7FEFF 		bl	uart_print
 1063              	.LVL152:
 261:main.c        ****     switch(current_mode) {
 1064              		.loc 1 261 0
 1065 000e 244B     		ldr	r3, .L64+8
 1066 0010 5B79     		ldrb	r3, [r3, #5]
 1067 0012 012B     		cmp	r3, #1
 1068 0014 0AD0     		beq	.L60
 1069 0016 002B     		cmp	r3, #0
 1070 0018 04D0     		beq	.L61
 1071 001a 022B     		cmp	r3, #2
 1072 001c 0AD0     		beq	.L62
 1073 001e 032B     		cmp	r3, #3
 1074 0020 0CD0     		beq	.L63
 1075 0022 0EE0     		b	.L59
 1076              	.L61:
 262:main.c        ****         case MODE_IDLE:    uart_print("IDLE"); break;
 1077              		.loc 1 262 0
 1078 0024 1F48     		ldr	r0, .L64+12
 1079 0026 FFF7FEFF 		bl	uart_print
 1080              	.LVL153:
 1081 002a 0AE0     		b	.L59
 1082              	.L60:
 263:main.c        ****         case MODE_STEPPER: uart_print("STEPPER"); break;
 1083              		.loc 1 263 0
 1084 002c 1E48     		ldr	r0, .L64+16
 1085 002e FFF7FEFF 		bl	uart_print
 1086              	.LVL154:
 1087 0032 06E0     		b	.L59
 1088              	.L62:
 264:main.c        ****         case MODE_SERVO:   uart_print("SERVO"); break;
 1089              		.loc 1 264 0
 1090 0034 1D48     		ldr	r0, .L64+20
 1091 0036 FFF7FEFF 		bl	uart_print
 1092              	.LVL155:
ARM GAS  C:\Users\12548\AppData\Local\Temp\ccQzdz04.s 			page 25


 1093 003a 02E0     		b	.L59
 1094              	.L63:
 265:main.c        ****         case MODE_DEMO:    uart_print("DEMO"); break;
 1095              		.loc 1 265 0
 1096 003c 1C48     		ldr	r0, .L64+24
 1097 003e FFF7FEFF 		bl	uart_print
 1098              	.LVL156:
 1099              	.L59:
 266:main.c        ****     }
 267:main.c        ****     uart_print("\r\n");
 1100              		.loc 1 267 0
 1101 0042 1C48     		ldr	r0, .L64+28
 1102 0044 FFF7FEFF 		bl	uart_print
 1103              	.LVL157:
 268:main.c        ****     
 269:main.c        ****     uart_print("Stepper Position: ");
 1104              		.loc 1 269 0
 1105 0048 1B48     		ldr	r0, .L64+32
 1106 004a FFF7FEFF 		bl	uart_print
 1107              	.LVL158:
 270:main.c        ****     uart_print_number(stepper_position / STEPS_PER_MM);
 1108              		.loc 1 270 0
 1109 004e 144C     		ldr	r4, .L64+8
 1110 0050 6421     		movs	r1, #100
 1111 0052 2068     		ldr	r0, [r4]
 1112 0054 FFF7FEFF 		bl	__aeabi_idiv
 1113              	.LVL159:
 1114 0058 FFF7FEFF 		bl	uart_print_number
 1115              	.LVL160:
 271:main.c        ****     uart_print(" mm (");
 1116              		.loc 1 271 0
 1117 005c 1748     		ldr	r0, .L64+36
 1118 005e FFF7FEFF 		bl	uart_print
 1119              	.LVL161:
 272:main.c        ****     uart_print_number(stepper_position);
 1120              		.loc 1 272 0
 1121 0062 2068     		ldr	r0, [r4]
 1122 0064 FFF7FEFF 		bl	uart_print_number
 1123              	.LVL162:
 273:main.c        ****     uart_print(" steps)\r\n");
 1124              		.loc 1 273 0
 1125 0068 1548     		ldr	r0, .L64+40
 1126 006a FFF7FEFF 		bl	uart_print
 1127              	.LVL163:
 274:main.c        ****     
 275:main.c        ****     uart_print("Servo Angle: ");
 1128              		.loc 1 275 0
 1129 006e 1548     		ldr	r0, .L64+44
 1130 0070 FFF7FEFF 		bl	uart_print
 1131              	.LVL164:
 276:main.c        ****     uart_print_number(servo_angle);
 1132              		.loc 1 276 0
 1133 0074 144C     		ldr	r4, .L64+48
 1134 0076 2088     		ldrh	r0, [r4]
 1135 0078 FFF7FEFF 		bl	uart_print_number
 1136              	.LVL165:
 277:main.c        ****     uart_print("° (pulse: ");
ARM GAS  C:\Users\12548\AppData\Local\Temp\ccQzdz04.s 			page 26


 1137              		.loc 1 277 0
 1138 007c 1348     		ldr	r0, .L64+52
 1139 007e FFF7FEFF 		bl	uart_print
 1140              	.LVL166:
 278:main.c        ****     uart_print_number(servo_pulse);
 1141              		.loc 1 278 0
 1142 0082 6088     		ldrh	r0, [r4, #2]
 1143 0084 FFF7FEFF 		bl	uart_print_number
 1144              	.LVL167:
 279:main.c        ****     uart_print(" us)\r\n");
 1145              		.loc 1 279 0
 1146 0088 1148     		ldr	r0, .L64+56
 1147 008a FFF7FEFF 		bl	uart_print
 1148              	.LVL168:
 280:main.c        ****     
 281:main.c        ****     uart_print("====================\r\n\r\n");
 1149              		.loc 1 281 0
 1150 008e 1148     		ldr	r0, .L64+60
 1151 0090 FFF7FEFF 		bl	uart_print
 1152              	.LVL169:
 282:main.c        **** }
 1153              		.loc 1 282 0
 1154              		@ sp needed
 1155 0094 10BD     		pop	{r4, pc}
 1156              	.L65:
 1157 0096 C046     		.align	2
 1158              	.L64:
 1159 0098 B0040000 		.word	.LC99
 1160 009c CC040000 		.word	.LC101
 1161 00a0 00000000 		.word	.LANCHOR0
 1162 00a4 D4040000 		.word	.LC104
 1163 00a8 DC040000 		.word	.LC106
 1164 00ac E4040000 		.word	.LC108
 1165 00b0 EC040000 		.word	.LC110
 1166 00b4 EC010000 		.word	.LC49
 1167 00b8 F4040000 		.word	.LC113
 1168 00bc 18000000 		.word	.LC4
 1169 00c0 20000000 		.word	.LC6
 1170 00c4 08050000 		.word	.LC117
 1171 00c8 00000000 		.word	.LANCHOR1
 1172 00cc 18050000 		.word	.LC120
 1173 00d0 24050000 		.word	.LC122
 1174 00d4 2C050000 		.word	.LC124
 1175              		.cfi_endproc
 1176              	.LFE46:
 1177              		.size	show_status, .-show_status
 1178              		.section	.text.process_command,"ax",%progbits
 1179              		.align	2
 1180              		.global	process_command
 1181              		.code	16
 1182              		.thumb_func
 1183              		.type	process_command, %function
 1184              	process_command:
 1185              	.LFB47:
 283:main.c        **** 
 284:main.c        **** void process_command(char cmd) {
 1186              		.loc 1 284 0
ARM GAS  C:\Users\12548\AppData\Local\Temp\ccQzdz04.s 			page 27


 1187              		.cfi_startproc
 1188              		@ args = 0, pretend = 0, frame = 0
 1189              		@ frame_needed = 0, uses_anonymous_args = 0
 1190              	.LVL170:
 1191 0000 70B5     		push	{r4, r5, r6, lr}
 1192              		.cfi_def_cfa_offset 16
 1193              		.cfi_offset 4, -16
 1194              		.cfi_offset 5, -12
 1195              		.cfi_offset 6, -8
 1196              		.cfi_offset 14, -4
 1197 0002 0400     		movs	r4, r0
 285:main.c        ****     static char angle_buffer[10];
 286:main.c        ****     static uint8 angle_index = 0;
 287:main.c        ****     
 288:main.c        ****     // 处理角度输入（A命令）
 289:main.c        ****     if(current_mode == MODE_SERVO && angle_index > 0) {
 1198              		.loc 1 289 0
 1199 0004 A64B     		ldr	r3, .L109
 1200 0006 5B79     		ldrb	r3, [r3, #5]
 1201 0008 022B     		cmp	r3, #2
 1202 000a 2AD1     		bne	.L67
 1203              		.loc 1 289 0 is_stmt 0 discriminator 1
 1204 000c A44B     		ldr	r3, .L109
 1205 000e 9B79     		ldrb	r3, [r3, #6]
 1206 0010 002B     		cmp	r3, #0
 1207 0012 26D0     		beq	.L67
 290:main.c        ****         if(cmd >= '0' && cmd <= '9') {
 1208              		.loc 1 290 0 is_stmt 1
 1209 0014 0200     		movs	r2, r0
 1210 0016 303A     		subs	r2, r2, #48
 1211 0018 D2B2     		uxtb	r2, r2
 1212 001a 092A     		cmp	r2, #9
 1213 001c 15D8     		bhi	.L68
 291:main.c        ****             angle_buffer[angle_index++] = cmd;
 1214              		.loc 1 291 0
 1215 001e 5A1C     		adds	r2, r3, #1
 1216 0020 D2B2     		uxtb	r2, r2
 1217 0022 9F49     		ldr	r1, .L109
 1218 0024 8A71     		strb	r2, [r1, #6]
 1219 0026 CB18     		adds	r3, r1, r3
 1220 0028 1872     		strb	r0, [r3, #8]
 292:main.c        ****             if(angle_index >= 3) {  // 最多3位数
 1221              		.loc 1 292 0
 1222 002a 022A     		cmp	r2, #2
 1223 002c 00D8     		bhi	.LCB1035
 1224 002e 35E1     		b	.L66	@long jump
 1225              	.LCB1035:
 1226              	.LBB6:
 293:main.c        ****                 angle_buffer[angle_index] = '\0';
 1227              		.loc 1 293 0
 1228 0030 0C00     		movs	r4, r1
 1229 0032 8A18     		adds	r2, r1, r2
 1230 0034 0025     		movs	r5, #0
 1231 0036 1572     		strb	r5, [r2, #8]
 294:main.c        ****                 uint16 angle = atoi(angle_buffer);
 1232              		.loc 1 294 0
 1233 0038 0800     		movs	r0, r1
ARM GAS  C:\Users\12548\AppData\Local\Temp\ccQzdz04.s 			page 28


 1234              	.LVL171:
 1235 003a 0830     		adds	r0, r0, #8
 1236 003c FFF7FEFF 		bl	atoi
 1237              	.LVL172:
 1238 0040 80B2     		uxth	r0, r0
 1239              	.LVL173:
 295:main.c        ****                 servo_set_angle(angle);
 1240              		.loc 1 295 0
 1241 0042 FFF7FEFF 		bl	servo_set_angle
 1242              	.LVL174:
 296:main.c        ****                 angle_index = 0;
 1243              		.loc 1 296 0
 1244 0046 A571     		strb	r5, [r4, #6]
 1245 0048 28E1     		b	.L66
 1246              	.LVL175:
 1247              	.L68:
 1248              	.LBE6:
 1249              	.LBB7:
 297:main.c        ****             }
 298:main.c        ****             return;
 299:main.c        ****         } else {
 300:main.c        ****             // 结束角度输入
 301:main.c        ****             angle_buffer[angle_index] = '\0';
 1250              		.loc 1 301 0
 1251 004a 954D     		ldr	r5, .L109
 1252 004c EB18     		adds	r3, r5, r3
 1253 004e 0026     		movs	r6, #0
 1254 0050 1E72     		strb	r6, [r3, #8]
 302:main.c        ****             uint16 angle = atoi(angle_buffer);
 1255              		.loc 1 302 0
 1256 0052 2800     		movs	r0, r5
 1257              	.LVL176:
 1258 0054 0830     		adds	r0, r0, #8
 1259 0056 FFF7FEFF 		bl	atoi
 1260              	.LVL177:
 1261 005a 80B2     		uxth	r0, r0
 1262              	.LVL178:
 303:main.c        ****             servo_set_angle(angle);
 1263              		.loc 1 303 0
 1264 005c FFF7FEFF 		bl	servo_set_angle
 1265              	.LVL179:
 304:main.c        ****             angle_index = 0;
 1266              		.loc 1 304 0
 1267 0060 AE71     		strb	r6, [r5, #6]
 1268              	.L67:
 1269              	.LBE7:
 305:main.c        ****         }
 306:main.c        ****     }
 307:main.c        ****     
 308:main.c        ****     // 通用命令
 309:main.c        ****     switch(cmd) {
 1270              		.loc 1 309 0
 1271 0062 2000     		movs	r0, r4
 1272 0064 3038     		subs	r0, r0, #48
 1273 0066 C3B2     		uxtb	r3, r0
 1274 0068 472B     		cmp	r3, #71
 1275 006a 00D9     		bls	.LCB1083
ARM GAS  C:\Users\12548\AppData\Local\Temp\ccQzdz04.s 			page 29


 1276 006c 13E1     		b	.L70	@long jump
 1277              	.LCB1083:
 1278 006e 9800     		lsls	r0, r3, #2
 1279 0070 8C4B     		ldr	r3, .L109+4
 1280 0072 1B58     		ldr	r3, [r3, r0]
 1281 0074 9F46     		mov	pc, r3
 1282              		.section	.rodata
 1283              		.align	2
 1284              	.L72:
 1285 0000 4E020000 		.word	.L71
 1286 0004 C2000000 		.word	.L73
 1287 0008 12010000 		.word	.L74
 1288 000c 4A010000 		.word	.L75
 1289 0010 84010000 		.word	.L76
 1290 0014 66020000 		.word	.L77
 1291 0018 96020000 		.word	.L70
 1292 001c 96020000 		.word	.L70
 1293 0020 96020000 		.word	.L70
 1294 0024 7E020000 		.word	.L78
 1295 0028 96020000 		.word	.L70
 1296 002c 96020000 		.word	.L70
 1297 0030 96020000 		.word	.L70
 1298 0034 96020000 		.word	.L70
 1299 0038 96020000 		.word	.L70
 1300 003c 44010000 		.word	.L79
 1301 0040 96020000 		.word	.L70
 1302 0044 FC010000 		.word	.L80
 1303 0048 96020000 		.word	.L70
 1304 004c 96020000 		.word	.L70
 1305 0050 2E010000 		.word	.L81
 1306 0054 96020000 		.word	.L70
 1307 0058 96020000 		.word	.L70
 1308 005c 96020000 		.word	.L70
 1309 0060 44010000 		.word	.L79
 1310 0064 96020000 		.word	.L70
 1311 0068 E2010000 		.word	.L82
 1312 006c 96020000 		.word	.L70
 1313 0070 96020000 		.word	.L70
 1314 0074 76000000 		.word	.L83
 1315 0078 96020000 		.word	.L70
 1316 007c 96020000 		.word	.L70
 1317 0080 30020000 		.word	.L84
 1318 0084 96020000 		.word	.L70
 1319 0088 96020000 		.word	.L70
 1320 008c 3E010000 		.word	.L85
 1321 0090 96020000 		.word	.L70
 1322 0094 CA010000 		.word	.L86
 1323 0098 96020000 		.word	.L70
 1324 009c 1A020000 		.word	.L87
 1325 00a0 96020000 		.word	.L70
 1326 00a4 96020000 		.word	.L70
 1327 00a8 96020000 		.word	.L70
 1328 00ac 96020000 		.word	.L70
 1329 00b0 96020000 		.word	.L70
 1330 00b4 96020000 		.word	.L70
 1331 00b8 96020000 		.word	.L70
 1332 00bc 96020000 		.word	.L70
ARM GAS  C:\Users\12548\AppData\Local\Temp\ccQzdz04.s 			page 30


 1333 00c0 96020000 		.word	.L70
 1334 00c4 FC010000 		.word	.L80
 1335 00c8 96020000 		.word	.L70
 1336 00cc 96020000 		.word	.L70
 1337 00d0 2E010000 		.word	.L81
 1338 00d4 96020000 		.word	.L70
 1339 00d8 96020000 		.word	.L70
 1340 00dc 96020000 		.word	.L70
 1341 00e0 44010000 		.word	.L79
 1342 00e4 96020000 		.word	.L70
 1343 00e8 E2010000 		.word	.L82
 1344 00ec 96020000 		.word	.L70
 1345 00f0 96020000 		.word	.L70
 1346 00f4 76000000 		.word	.L83
 1347 00f8 96020000 		.word	.L70
 1348 00fc 96020000 		.word	.L70
 1349 0100 30020000 		.word	.L84
 1350 0104 96020000 		.word	.L70
 1351 0108 96020000 		.word	.L70
 1352 010c 3E010000 		.word	.L85
 1353 0110 96020000 		.word	.L70
 1354 0114 CA010000 		.word	.L86
 1355 0118 96020000 		.word	.L70
 1356 011c 1A020000 		.word	.L87
 1357              		.section	.text.process_command
 1358              	.L83:
 310:main.c        ****         case 'M':
 311:main.c        ****         case 'm':
 312:main.c        ****             uart_print("Select mode: 1=Stepper, 2=Servo: ");
 1359              		.loc 1 312 0
 1360 0076 8C48     		ldr	r0, .L109+8
 1361 0078 FFF7FEFF 		bl	uart_print
 1362              	.LVL180:
 1363              	.L91:
 313:main.c        ****             // 等待下一个字符
 314:main.c        ****             while(1) {
 315:main.c        ****                 cmd = uart_get_char();
 1364              		.loc 1 315 0
 1365 007c FFF7FEFF 		bl	uart_get_char
 1366              	.LVL181:
 1367 0080 041E     		subs	r4, r0, #0
 1368              	.LVL182:
 316:main.c        ****                 if(cmd != 0) {
 1369              		.loc 1 316 0
 1370 0082 1AD0     		beq	.L88
 317:main.c        ****                     UART_UartPutChar(cmd);  // 回显
 1371              		.loc 1 317 0
 1372 0084 FFF7FEFF 		bl	UART_SpiUartWriteTxData
 1373              	.LVL183:
 318:main.c        ****                     uart_print("\r\n");
 1374              		.loc 1 318 0
 1375 0088 8848     		ldr	r0, .L109+12
 1376 008a FFF7FEFF 		bl	uart_print
 1377              	.LVL184:
 319:main.c        ****                     if(cmd == '1') {
 1378              		.loc 1 319 0
 1379 008e 312C     		cmp	r4, #49
ARM GAS  C:\Users\12548\AppData\Local\Temp\ccQzdz04.s 			page 31


 1380 0090 06D1     		bne	.L89
 320:main.c        ****                         current_mode = MODE_STEPPER;
 1381              		.loc 1 320 0
 1382 0092 0122     		movs	r2, #1
 1383 0094 824B     		ldr	r3, .L109
 1384 0096 5A71     		strb	r2, [r3, #5]
 321:main.c        ****                         uart_print("Switched to STEPPER mode\r\n");
 1385              		.loc 1 321 0
 1386 0098 8548     		ldr	r0, .L109+16
 1387 009a FFF7FEFF 		bl	uart_print
 1388              	.LVL185:
 322:main.c        ****                         break;
 1389              		.loc 1 322 0
 1390 009e FDE0     		b	.L66
 1391              	.L89:
 323:main.c        ****                     } else if(cmd == '2') {
 1392              		.loc 1 323 0
 1393 00a0 322C     		cmp	r4, #50
 1394 00a2 06D1     		bne	.L90
 324:main.c        ****                         current_mode = MODE_SERVO;
 1395              		.loc 1 324 0
 1396 00a4 0222     		movs	r2, #2
 1397 00a6 7E4B     		ldr	r3, .L109
 1398 00a8 5A71     		strb	r2, [r3, #5]
 325:main.c        ****                         uart_print("Switched to SERVO mode\r\n");
 1399              		.loc 1 325 0
 1400 00aa 8248     		ldr	r0, .L109+20
 1401 00ac FFF7FEFF 		bl	uart_print
 1402              	.LVL186:
 326:main.c        ****                         break;
 1403              		.loc 1 326 0
 1404 00b0 F4E0     		b	.L66
 1405              	.L90:
 327:main.c        ****                     } else {
 328:main.c        ****                         uart_print("Invalid mode. Use M1 or M2\r\n");
 1406              		.loc 1 328 0
 1407 00b2 8148     		ldr	r0, .L109+24
 1408 00b4 FFF7FEFF 		bl	uart_print
 1409              	.LVL187:
 329:main.c        ****                         break;
 1410              		.loc 1 329 0
 1411 00b8 F0E0     		b	.L66
 1412              	.LVL188:
 1413              	.L88:
 330:main.c        ****                     }
 331:main.c        ****                 }
 332:main.c        ****                 delay_ms(10);
 1414              		.loc 1 332 0
 1415 00ba 0A20     		movs	r0, #10
 1416              	.LVL189:
 1417 00bc FFF7FEFF 		bl	delay_ms
 1418              	.LVL190:
 333:main.c        ****             }
 1419              		.loc 1 333 0
 1420 00c0 DCE7     		b	.L91
 1421              	.LVL191:
 1422              	.L73:
ARM GAS  C:\Users\12548\AppData\Local\Temp\ccQzdz04.s 			page 32


 334:main.c        ****             break;
 335:main.c        ****         
 336:main.c        ****         case '1':
 337:main.c        ****             if(current_mode == MODE_STEPPER) {
 1423              		.loc 1 337 0
 1424 00c2 774B     		ldr	r3, .L109
 1425 00c4 5B79     		ldrb	r3, [r3, #5]
 1426 00c6 012B     		cmp	r3, #1
 1427 00c8 0ED1     		bne	.L92
 338:main.c        ****                 uart_print("Test: Up/Down 50mm\r\n");
 1428              		.loc 1 338 0
 1429 00ca 7C48     		ldr	r0, .L109+28
 1430 00cc FFF7FEFF 		bl	uart_print
 1431              	.LVL192:
 339:main.c        ****                 stepper_move_mm(50);
 1432              		.loc 1 339 0
 1433 00d0 3220     		movs	r0, #50
 1434 00d2 FFF7FEFF 		bl	stepper_move_mm
 1435              	.LVL193:
 340:main.c        ****                 delay_ms(1000);
 1436              		.loc 1 340 0
 1437 00d6 FA20     		movs	r0, #250
 1438 00d8 8000     		lsls	r0, r0, #2
 1439 00da FFF7FEFF 		bl	delay_ms
 1440              	.LVL194:
 341:main.c        ****                 stepper_move_mm(-50);
 1441              		.loc 1 341 0
 1442 00de 3220     		movs	r0, #50
 1443 00e0 4042     		rsbs	r0, r0, #0
 1444 00e2 FFF7FEFF 		bl	stepper_move_mm
 1445              	.LVL195:
 1446 00e6 D9E0     		b	.L66
 1447              	.L92:
 342:main.c        ****             } else {
 343:main.c        ****                 current_mode = MODE_STEPPER;
 1448              		.loc 1 343 0
 1449 00e8 0122     		movs	r2, #1
 1450 00ea 6D4B     		ldr	r3, .L109
 1451 00ec 5A71     		strb	r2, [r3, #5]
 344:main.c        ****                 uart_print("Auto-switched to STEPPER mode\r\n");
 1452              		.loc 1 344 0
 1453 00ee 7448     		ldr	r0, .L109+32
 1454 00f0 FFF7FEFF 		bl	uart_print
 1455              	.LVL196:
 345:main.c        ****                 uart_print("Test: Up/Down 50mm\r\n");
 1456              		.loc 1 345 0
 1457 00f4 7148     		ldr	r0, .L109+28
 1458 00f6 FFF7FEFF 		bl	uart_print
 1459              	.LVL197:
 346:main.c        ****                 stepper_move_mm(50);
 1460              		.loc 1 346 0
 1461 00fa 3220     		movs	r0, #50
 1462 00fc FFF7FEFF 		bl	stepper_move_mm
 1463              	.LVL198:
 347:main.c        ****                 delay_ms(1000);
 1464              		.loc 1 347 0
 1465 0100 FA20     		movs	r0, #250
ARM GAS  C:\Users\12548\AppData\Local\Temp\ccQzdz04.s 			page 33


 1466 0102 8000     		lsls	r0, r0, #2
 1467 0104 FFF7FEFF 		bl	delay_ms
 1468              	.LVL199:
 348:main.c        ****                 stepper_move_mm(-50);
 1469              		.loc 1 348 0
 1470 0108 3220     		movs	r0, #50
 1471 010a 4042     		rsbs	r0, r0, #0
 1472 010c FFF7FEFF 		bl	stepper_move_mm
 1473              	.LVL200:
 1474 0110 C4E0     		b	.L66
 1475              	.L74:
 349:main.c        ****             }
 350:main.c        ****             break;
 351:main.c        ****             
 352:main.c        ****         case '2':
 353:main.c        ****             if(current_mode == MODE_STEPPER) {
 1476              		.loc 1 353 0
 1477 0112 634B     		ldr	r3, .L109
 1478 0114 5B79     		ldrb	r3, [r3, #5]
 1479 0116 012B     		cmp	r3, #1
 1480 0118 02D1     		bne	.L93
 354:main.c        ****                 stepper_home();
 1481              		.loc 1 354 0
 1482 011a FFF7FEFF 		bl	stepper_home
 1483              	.LVL201:
 1484 011e BDE0     		b	.L66
 1485              	.L93:
 355:main.c        ****             } else {
 356:main.c        ****                 current_mode = MODE_SERVO;
 1486              		.loc 1 356 0
 1487 0120 0222     		movs	r2, #2
 1488 0122 5F4B     		ldr	r3, .L109
 1489 0124 5A71     		strb	r2, [r3, #5]
 357:main.c        ****                 uart_print("Auto-switched to SERVO mode\r\n");
 1490              		.loc 1 357 0
 1491 0126 6748     		ldr	r0, .L109+36
 1492 0128 FFF7FEFF 		bl	uart_print
 1493              	.LVL202:
 1494 012c B6E0     		b	.L66
 1495              	.L81:
 358:main.c        ****             }
 359:main.c        ****             break;
 360:main.c        ****             
 361:main.c        ****         case 'D':
 362:main.c        ****         case 'd':
 363:main.c        ****             current_mode = MODE_DEMO;
 1496              		.loc 1 363 0
 1497 012e 5C4C     		ldr	r4, .L109
 1498 0130 0323     		movs	r3, #3
 1499 0132 6371     		strb	r3, [r4, #5]
 364:main.c        ****             run_demo();
 1500              		.loc 1 364 0
 1501 0134 FFF7FEFF 		bl	run_demo
 1502              	.LVL203:
 365:main.c        ****             current_mode = MODE_IDLE;
 1503              		.loc 1 365 0
 1504 0138 0023     		movs	r3, #0
ARM GAS  C:\Users\12548\AppData\Local\Temp\ccQzdz04.s 			page 34


 1505 013a 6371     		strb	r3, [r4, #5]
 366:main.c        ****             break;
 1506              		.loc 1 366 0
 1507 013c AEE0     		b	.L66
 1508              	.L85:
 367:main.c        ****             
 368:main.c        ****         case 'S':
 369:main.c        ****         case 's':
 370:main.c        ****             show_status();
 1509              		.loc 1 370 0
 1510 013e FFF7FEFF 		bl	show_status
 1511              	.LVL204:
 371:main.c        ****             break;
 1512              		.loc 1 371 0
 1513 0142 ABE0     		b	.L66
 1514              	.L79:
 372:main.c        ****             
 373:main.c        ****         case 'H':
 374:main.c        ****         case 'h':
 375:main.c        ****         case '?':
 376:main.c        ****             show_help();
 1515              		.loc 1 376 0
 1516 0144 FFF7FEFF 		bl	show_help
 1517              	.LVL205:
 377:main.c        ****             break;
 1518              		.loc 1 377 0
 1519 0148 A8E0     		b	.L66
 1520              	.L75:
 378:main.c        ****             
 379:main.c        ****         case '3':
 380:main.c        ****             if(current_mode == MODE_STEPPER) {
 1521              		.loc 1 380 0
 1522 014a 554B     		ldr	r3, .L109
 1523 014c 5B79     		ldrb	r3, [r3, #5]
 1524 014e 012B     		cmp	r3, #1
 1525 0150 03D1     		bne	.L94
 381:main.c        ****                 stepper_move_to(50);
 1526              		.loc 1 381 0
 1527 0152 3220     		movs	r0, #50
 1528 0154 FFF7FEFF 		bl	stepper_move_to
 1529              	.LVL206:
 1530 0158 A0E0     		b	.L66
 1531              	.L94:
 382:main.c        ****             } else {
 383:main.c        ****                 uart_print("Command '3' is for STEPPER mode. Current mode: ");
 1532              		.loc 1 383 0
 1533 015a 5B48     		ldr	r0, .L109+40
 1534 015c FFF7FEFF 		bl	uart_print
 1535              	.LVL207:
 384:main.c        ****                 switch(current_mode) {
 1536              		.loc 1 384 0
 1537 0160 4F4B     		ldr	r3, .L109
 1538 0162 5B79     		ldrb	r3, [r3, #5]
 1539 0164 002B     		cmp	r3, #0
 1540 0166 02D0     		beq	.L96
 1541 0168 022B     		cmp	r3, #2
 1542 016a 04D0     		beq	.L97
ARM GAS  C:\Users\12548\AppData\Local\Temp\ccQzdz04.s 			page 35


 1543 016c 06E0     		b	.L95
 1544              	.L96:
 385:main.c        ****                     case MODE_IDLE: uart_print("IDLE"); break;
 1545              		.loc 1 385 0
 1546 016e 5748     		ldr	r0, .L109+44
 1547 0170 FFF7FEFF 		bl	uart_print
 1548              	.LVL208:
 1549 0174 02E0     		b	.L95
 1550              	.L97:
 386:main.c        ****                     case MODE_SERVO: uart_print("SERVO"); break;
 1551              		.loc 1 386 0
 1552 0176 5648     		ldr	r0, .L109+48
 1553 0178 FFF7FEFF 		bl	uart_print
 1554              	.LVL209:
 1555              	.L95:
 387:main.c        ****                     default: break;
 388:main.c        ****                 }
 389:main.c        ****                 uart_print("\r\n");
 1556              		.loc 1 389 0
 1557 017c 4B48     		ldr	r0, .L109+12
 1558 017e FFF7FEFF 		bl	uart_print
 1559              	.LVL210:
 1560 0182 8BE0     		b	.L66
 1561              	.L76:
 390:main.c        ****             }
 391:main.c        ****             break;
 392:main.c        ****             
 393:main.c        ****         case '4':
 394:main.c        ****             if(current_mode == MODE_STEPPER) {
 1562              		.loc 1 394 0
 1563 0184 464B     		ldr	r3, .L109
 1564 0186 5B79     		ldrb	r3, [r3, #5]
 1565 0188 012B     		cmp	r3, #1
 1566 018a 1AD1     		bne	.L98
 395:main.c        ****                 uart_print("Continuous test (press any key to stop)\r\n");
 1567              		.loc 1 395 0
 1568 018c 5148     		ldr	r0, .L109+52
 1569 018e FFF7FEFF 		bl	uart_print
 1570              	.LVL211:
 396:main.c        ****                 while(uart_get_char() == 0) {
 1571              		.loc 1 396 0
 1572 0192 0EE0     		b	.L99
 1573              	.L100:
 397:main.c        ****                     stepper_move_mm(30);
 1574              		.loc 1 397 0
 1575 0194 1E20     		movs	r0, #30
 1576 0196 FFF7FEFF 		bl	stepper_move_mm
 1577              	.LVL212:
 398:main.c        ****                     delay_ms(500);
 1578              		.loc 1 398 0
 1579 019a FA24     		movs	r4, #250
 1580 019c 6400     		lsls	r4, r4, #1
 1581 019e 2000     		movs	r0, r4
 1582 01a0 FFF7FEFF 		bl	delay_ms
 1583              	.LVL213:
 399:main.c        ****                     stepper_move_mm(-30);
 1584              		.loc 1 399 0
ARM GAS  C:\Users\12548\AppData\Local\Temp\ccQzdz04.s 			page 36


 1585 01a4 1E20     		movs	r0, #30
 1586 01a6 4042     		rsbs	r0, r0, #0
 1587 01a8 FFF7FEFF 		bl	stepper_move_mm
 1588              	.LVL214:
 400:main.c        ****                     delay_ms(500);
 1589              		.loc 1 400 0
 1590 01ac 2000     		movs	r0, r4
 1591 01ae FFF7FEFF 		bl	delay_ms
 1592              	.LVL215:
 1593              	.L99:
 396:main.c        ****                     stepper_move_mm(30);
 1594              		.loc 1 396 0
 1595 01b2 FFF7FEFF 		bl	uart_get_char
 1596              	.LVL216:
 1597 01b6 0028     		cmp	r0, #0
 1598 01b8 ECD0     		beq	.L100
 401:main.c        ****                 }
 402:main.c        ****                 uart_print("Stopped\r\n");
 1599              		.loc 1 402 0
 1600 01ba 4748     		ldr	r0, .L109+56
 1601 01bc FFF7FEFF 		bl	uart_print
 1602              	.LVL217:
 1603 01c0 6CE0     		b	.L66
 1604              	.L98:
 403:main.c        ****             } else {
 404:main.c        ****                 uart_print("Command '4' is for STEPPER mode. Use M1 first.\r\n");
 1605              		.loc 1 404 0
 1606 01c2 4648     		ldr	r0, .L109+60
 1607 01c4 FFF7FEFF 		bl	uart_print
 1608              	.LVL218:
 1609 01c8 68E0     		b	.L66
 1610              	.L86:
 405:main.c        ****             }
 406:main.c        ****             break;
 407:main.c        ****             
 408:main.c        ****         case 'U':
 409:main.c        ****         case 'u':
 410:main.c        ****             if(current_mode == MODE_STEPPER) {
 1611              		.loc 1 410 0
 1612 01ca 354B     		ldr	r3, .L109
 1613 01cc 5B79     		ldrb	r3, [r3, #5]
 1614 01ce 012B     		cmp	r3, #1
 1615 01d0 03D1     		bne	.L101
 411:main.c        ****                 stepper_move_mm(10);
 1616              		.loc 1 411 0
 1617 01d2 0A20     		movs	r0, #10
 1618 01d4 FFF7FEFF 		bl	stepper_move_mm
 1619              	.LVL219:
 1620 01d8 60E0     		b	.L66
 1621              	.L101:
 412:main.c        ****             } else {
 413:main.c        ****                 uart_print("Command 'U' is for STEPPER mode. Use M1 first.\r\n");
 1622              		.loc 1 413 0
 1623 01da 4148     		ldr	r0, .L109+64
 1624 01dc FFF7FEFF 		bl	uart_print
 1625              	.LVL220:
 1626 01e0 5CE0     		b	.L66
ARM GAS  C:\Users\12548\AppData\Local\Temp\ccQzdz04.s 			page 37


 1627              	.L82:
 414:main.c        ****             }
 415:main.c        ****             break;
 416:main.c        ****             
 417:main.c        ****         case 'J':
 418:main.c        ****         case 'j':
 419:main.c        ****             if(current_mode == MODE_STEPPER) {
 1628              		.loc 1 419 0
 1629 01e2 2F4B     		ldr	r3, .L109
 1630 01e4 5B79     		ldrb	r3, [r3, #5]
 1631 01e6 012B     		cmp	r3, #1
 1632 01e8 04D1     		bne	.L102
 420:main.c        ****                 stepper_move_mm(-10);
 1633              		.loc 1 420 0
 1634 01ea 0A20     		movs	r0, #10
 1635 01ec 4042     		rsbs	r0, r0, #0
 1636 01ee FFF7FEFF 		bl	stepper_move_mm
 1637              	.LVL221:
 1638 01f2 53E0     		b	.L66
 1639              	.L102:
 421:main.c        ****             } else {
 422:main.c        ****                 uart_print("Command 'J' is for STEPPER mode. Use M1 first.\r\n");
 1640              		.loc 1 422 0
 1641 01f4 3B48     		ldr	r0, .L109+68
 1642 01f6 FFF7FEFF 		bl	uart_print
 1643              	.LVL222:
 1644 01fa 4FE0     		b	.L66
 1645              	.L80:
 423:main.c        ****             }
 424:main.c        ****             break;
 425:main.c        ****             
 426:main.c        ****         // 伺服电机特定命令
 427:main.c        ****         case 'A':
 428:main.c        ****         case 'a':
 429:main.c        ****             if(current_mode == MODE_SERVO) {
 1646              		.loc 1 429 0
 1647 01fc 284B     		ldr	r3, .L109
 1648 01fe 5B79     		ldrb	r3, [r3, #5]
 1649 0200 022B     		cmp	r3, #2
 1650 0202 06D1     		bne	.L103
 430:main.c        ****                 uart_print("Enter angle (0-180): ");
 1651              		.loc 1 430 0
 1652 0204 3848     		ldr	r0, .L109+72
 1653 0206 FFF7FEFF 		bl	uart_print
 1654              	.LVL223:
 431:main.c        ****                 angle_index = 0;
 1655              		.loc 1 431 0
 1656 020a 0022     		movs	r2, #0
 1657 020c 244B     		ldr	r3, .L109
 1658 020e 9A71     		strb	r2, [r3, #6]
 1659 0210 44E0     		b	.L66
 1660              	.L103:
 432:main.c        ****             } else {
 433:main.c        ****                 uart_print("Command 'A' is for SERVO mode. Use M2 first.\r\n");
 1661              		.loc 1 433 0
 1662 0212 3648     		ldr	r0, .L109+76
 1663 0214 FFF7FEFF 		bl	uart_print
ARM GAS  C:\Users\12548\AppData\Local\Temp\ccQzdz04.s 			page 38


 1664              	.LVL224:
 1665 0218 40E0     		b	.L66
 1666              	.L87:
 434:main.c        ****             }
 435:main.c        ****             break;
 436:main.c        ****             
 437:main.c        ****         case 'W':
 438:main.c        ****         case 'w':
 439:main.c        ****             if(current_mode == MODE_SERVO) {
 1667              		.loc 1 439 0
 1668 021a 214B     		ldr	r3, .L109
 1669 021c 5B79     		ldrb	r3, [r3, #5]
 1670 021e 022B     		cmp	r3, #2
 1671 0220 02D1     		bne	.L104
 440:main.c        ****                 servo_sweep();
 1672              		.loc 1 440 0
 1673 0222 FFF7FEFF 		bl	servo_sweep
 1674              	.LVL225:
 1675 0226 39E0     		b	.L66
 1676              	.L104:
 441:main.c        ****             } else {
 442:main.c        ****                 uart_print("Command 'W' is for SERVO mode. Use M2 first.\r\n");
 1677              		.loc 1 442 0
 1678 0228 3148     		ldr	r0, .L109+80
 1679 022a FFF7FEFF 		bl	uart_print
 1680              	.LVL226:
 1681 022e 35E0     		b	.L66
 1682              	.L84:
 443:main.c        ****             }
 444:main.c        ****             break;
 445:main.c        ****             
 446:main.c        ****         case 'P':
 447:main.c        ****         case 'p':
 448:main.c        ****             if(current_mode == MODE_SERVO) {
 1683              		.loc 1 448 0
 1684 0230 1B4B     		ldr	r3, .L109
 1685 0232 5B79     		ldrb	r3, [r3, #5]
 1686 0234 022B     		cmp	r3, #2
 1687 0236 06D1     		bne	.L105
 449:main.c        ****                 servo_sweep_active = 0;
 1688              		.loc 1 449 0
 1689 0238 0022     		movs	r2, #0
 1690 023a 194B     		ldr	r3, .L109
 1691 023c 1A71     		strb	r2, [r3, #4]
 450:main.c        ****                 uart_print("Sweep stopped\r\n");
 1692              		.loc 1 450 0
 1693 023e 2D48     		ldr	r0, .L109+84
 1694 0240 FFF7FEFF 		bl	uart_print
 1695              	.LVL227:
 1696 0244 2AE0     		b	.L66
 1697              	.L105:
 451:main.c        ****             } else {
 452:main.c        ****                 uart_print("Command 'P' is for SERVO mode. Use M2 first.\r\n");
 1698              		.loc 1 452 0
 1699 0246 2C48     		ldr	r0, .L109+88
 1700 0248 FFF7FEFF 		bl	uart_print
 1701              	.LVL228:
ARM GAS  C:\Users\12548\AppData\Local\Temp\ccQzdz04.s 			page 39


 1702 024c 26E0     		b	.L66
 1703              	.L71:
 453:main.c        ****             }
 454:main.c        ****             break;
 455:main.c        ****             
 456:main.c        ****         case '0':
 457:main.c        ****             if(current_mode == MODE_SERVO) {
 1704              		.loc 1 457 0
 1705 024e 144B     		ldr	r3, .L109
 1706 0250 5B79     		ldrb	r3, [r3, #5]
 1707 0252 022B     		cmp	r3, #2
 1708 0254 03D1     		bne	.L106
 458:main.c        ****                 servo_set_angle(0);
 1709              		.loc 1 458 0
 1710 0256 0020     		movs	r0, #0
 1711 0258 FFF7FEFF 		bl	servo_set_angle
 1712              	.LVL229:
 1713 025c 1EE0     		b	.L66
 1714              	.L106:
 459:main.c        ****             } else {
 460:main.c        ****                 uart_print("Command '0' is for SERVO mode. Use M2 first.\r\n");
 1715              		.loc 1 460 0
 1716 025e 2748     		ldr	r0, .L109+92
 1717 0260 FFF7FEFF 		bl	uart_print
 1718              	.LVL230:
 1719 0264 1AE0     		b	.L66
 1720              	.L77:
 461:main.c        ****             }
 462:main.c        ****             break;
 463:main.c        ****             
 464:main.c        ****         case '5':
 465:main.c        ****             if(current_mode == MODE_SERVO) {
 1721              		.loc 1 465 0
 1722 0266 0E4B     		ldr	r3, .L109
 1723 0268 5B79     		ldrb	r3, [r3, #5]
 1724 026a 022B     		cmp	r3, #2
 1725 026c 03D1     		bne	.L107
 466:main.c        ****                 servo_set_angle(90);
 1726              		.loc 1 466 0
 1727 026e 5A20     		movs	r0, #90
 1728 0270 FFF7FEFF 		bl	servo_set_angle
 1729              	.LVL231:
 1730 0274 12E0     		b	.L66
 1731              	.L107:
 467:main.c        ****             } else {
 468:main.c        ****                 uart_print("Command '5' is for SERVO mode. Use M2 first.\r\n");
 1732              		.loc 1 468 0
 1733 0276 2248     		ldr	r0, .L109+96
 1734 0278 FFF7FEFF 		bl	uart_print
 1735              	.LVL232:
 1736 027c 0EE0     		b	.L66
 1737              	.L78:
 469:main.c        ****             }
 470:main.c        ****             break;
 471:main.c        ****             
 472:main.c        ****         case '9':
 473:main.c        ****             if(current_mode == MODE_SERVO) {
ARM GAS  C:\Users\12548\AppData\Local\Temp\ccQzdz04.s 			page 40


 1738              		.loc 1 473 0
 1739 027e 084B     		ldr	r3, .L109
 1740 0280 5B79     		ldrb	r3, [r3, #5]
 1741 0282 022B     		cmp	r3, #2
 1742 0284 03D1     		bne	.L108
 474:main.c        ****                 servo_set_angle(180);
 1743              		.loc 1 474 0
 1744 0286 B420     		movs	r0, #180
 1745 0288 FFF7FEFF 		bl	servo_set_angle
 1746              	.LVL233:
 1747 028c 06E0     		b	.L66
 1748              	.L108:
 475:main.c        ****             } else {
 476:main.c        ****                 uart_print("Command '9' is for SERVO mode. Use M2 first.\r\n");
 1749              		.loc 1 476 0
 1750 028e 1D48     		ldr	r0, .L109+100
 1751 0290 FFF7FEFF 		bl	uart_print
 1752              	.LVL234:
 1753 0294 02E0     		b	.L66
 1754              	.L70:
 477:main.c        ****             }
 478:main.c        ****             break;
 479:main.c        ****             
 480:main.c        ****         default:
 481:main.c        ****             uart_print("Unknown command. Type 'H' for help.\r\n");
 1755              		.loc 1 481 0
 1756 0296 1C48     		ldr	r0, .L109+104
 1757 0298 FFF7FEFF 		bl	uart_print
 1758              	.LVL235:
 1759              	.L66:
 482:main.c        ****             break;
 483:main.c        ****     }
 484:main.c        **** }
 1760              		.loc 1 484 0
 1761              		@ sp needed
 1762 029c 70BD     		pop	{r4, r5, r6, pc}
 1763              	.L110:
 1764 029e C046     		.align	2
 1765              	.L109:
 1766 02a0 00000000 		.word	.LANCHOR0
 1767 02a4 00000000 		.word	.L72
 1768 02a8 48050000 		.word	.LC128
 1769 02ac EC010000 		.word	.LC49
 1770 02b0 6C050000 		.word	.LC131
 1771 02b4 88050000 		.word	.LC133
 1772 02b8 A4050000 		.word	.LC135
 1773 02bc C4050000 		.word	.LC137
 1774 02c0 DC050000 		.word	.LC139
 1775 02c4 FC050000 		.word	.LC141
 1776 02c8 1C060000 		.word	.LC143
 1777 02cc D4040000 		.word	.LC104
 1778 02d0 E4040000 		.word	.LC108
 1779 02d4 4C060000 		.word	.LC147
 1780 02d8 78060000 		.word	.LC149
 1781 02dc 84060000 		.word	.LC151
 1782 02e0 B8060000 		.word	.LC153
 1783 02e4 EC060000 		.word	.LC155
ARM GAS  C:\Users\12548\AppData\Local\Temp\ccQzdz04.s 			page 41


 1784 02e8 20070000 		.word	.LC157
 1785 02ec 38070000 		.word	.LC159
 1786 02f0 68070000 		.word	.LC161
 1787 02f4 98070000 		.word	.LC163
 1788 02f8 A8070000 		.word	.LC165
 1789 02fc D8070000 		.word	.LC167
 1790 0300 08080000 		.word	.LC169
 1791 0304 38080000 		.word	.LC171
 1792 0308 68080000 		.word	.LC173
 1793              		.cfi_endproc
 1794              	.LFE47:
 1795              		.size	process_command, .-process_command
 1796              		.section	.text.main,"ax",%progbits
 1797              		.align	2
 1798              		.global	main
 1799              		.code	16
 1800              		.thumb_func
 1801              		.type	main, %function
 1802              	main:
 1803              	.LFB48:
 485:main.c        **** 
 486:main.c        **** // ============ 主函数 ============
 487:main.c        **** int main(void) {
 1804              		.loc 1 487 0
 1805              		.cfi_startproc
 1806              		@ args = 0, pretend = 0, frame = 0
 1807              		@ frame_needed = 0, uses_anonymous_args = 0
 1808 0000 70B5     		push	{r4, r5, r6, lr}
 1809              		.cfi_def_cfa_offset 16
 1810              		.cfi_offset 4, -16
 1811              		.cfi_offset 5, -12
 1812              		.cfi_offset 6, -8
 1813              		.cfi_offset 14, -4
 488:main.c        ****     CyGlobalIntEnable;  // 使能全局中断
 1814              		.loc 1 488 0
 1815              		.syntax divided
 1816              	@ 488 "main.c" 1
 1817 0002 62B6     		CPSIE   i
 1818              	@ 0 "" 2
 489:main.c        ****     
 490:main.c        ****     // 初始化UART
 491:main.c        ****     UART_Start();
 1819              		.loc 1 491 0
 1820              		.thumb
 1821              		.syntax unified
 1822 0004 FFF7FEFF 		bl	UART_Start
 1823              	.LVL236:
 492:main.c        ****     delay_ms(100);
 1824              		.loc 1 492 0
 1825 0008 6420     		movs	r0, #100
 1826 000a FFF7FEFF 		bl	delay_ms
 1827              	.LVL237:
 493:main.c        ****     
 494:main.c        ****     // 初始化步进电机引脚
 495:main.c        ****     Pin_STEP_Write(0);
 1828              		.loc 1 495 0
 1829 000e 0020     		movs	r0, #0
ARM GAS  C:\Users\12548\AppData\Local\Temp\ccQzdz04.s 			page 42


 1830 0010 FFF7FEFF 		bl	Pin_STEP_Write
 1831              	.LVL238:
 496:main.c        ****     Pin_DIR_Write(0);
 1832              		.loc 1 496 0
 1833 0014 0020     		movs	r0, #0
 1834 0016 FFF7FEFF 		bl	Pin_DIR_Write
 1835              	.LVL239:
 497:main.c        ****     Pin_ENABLE_Write(0);  // 使能步进电机
 1836              		.loc 1 497 0
 1837 001a 0020     		movs	r0, #0
 1838 001c FFF7FEFF 		bl	Pin_ENABLE_Write
 1839              	.LVL240:
 498:main.c        ****     
 499:main.c        ****     // 初始化PWM（伺服）
 500:main.c        ****     PWM_Servo_Start();
 1840              		.loc 1 500 0
 1841 0020 FFF7FEFF 		bl	PWM_Servo_Start
 1842              	.LVL241:
 501:main.c        ****     servo_set_angle(90);  // 伺服归中
 1843              		.loc 1 501 0
 1844 0024 5A20     		movs	r0, #90
 1845 0026 FFF7FEFF 		bl	servo_set_angle
 1846              	.LVL242:
 502:main.c        ****     
 503:main.c        ****     // 显示启动信息
 504:main.c        ****     uart_print("\r\n");
 1847              		.loc 1 504 0
 1848 002a 224C     		ldr	r4, .L116
 1849 002c 2000     		movs	r0, r4
 1850 002e FFF7FEFF 		bl	uart_print
 1851              	.LVL243:
 505:main.c        ****     uart_print("*******************************************\r\n");
 1852              		.loc 1 505 0
 1853 0032 214D     		ldr	r5, .L116+4
 1854 0034 2800     		movs	r0, r5
 1855 0036 FFF7FEFF 		bl	uart_print
 1856              	.LVL244:
 506:main.c        ****     uart_print("*     PSoC 4500S MOTOR CONTROL SYSTEM    *\r\n");
 1857              		.loc 1 506 0
 1858 003a 2048     		ldr	r0, .L116+8
 1859 003c FFF7FEFF 		bl	uart_print
 1860              	.LVL245:
 507:main.c        ****     uart_print("*         Stepper + Servo Control        *\r\n");
 1861              		.loc 1 507 0
 1862 0040 1F48     		ldr	r0, .L116+12
 1863 0042 FFF7FEFF 		bl	uart_print
 1864              	.LVL246:
 508:main.c        ****     uart_print("*******************************************\r\n");
 1865              		.loc 1 508 0
 1866 0046 2800     		movs	r0, r5
 1867 0048 FFF7FEFF 		bl	uart_print
 1868              	.LVL247:
 509:main.c        ****     uart_print("Version 1.0 - Integrated Test System\r\n");
 1869              		.loc 1 509 0
 1870 004c 1D48     		ldr	r0, .L116+16
 1871 004e FFF7FEFF 		bl	uart_print
 1872              	.LVL248:
ARM GAS  C:\Users\12548\AppData\Local\Temp\ccQzdz04.s 			page 43


 510:main.c        ****     uart_print("\r\n");
 1873              		.loc 1 510 0
 1874 0052 2000     		movs	r0, r4
 1875 0054 FFF7FEFF 		bl	uart_print
 1876              	.LVL249:
 511:main.c        ****     uart_print("Initialization complete!\r\n");
 1877              		.loc 1 511 0
 1878 0058 1B48     		ldr	r0, .L116+20
 1879 005a FFF7FEFF 		bl	uart_print
 1880              	.LVL250:
 512:main.c        ****     uart_print("  - Stepper motor: READY (at 0mm)\r\n");
 1881              		.loc 1 512 0
 1882 005e 1B48     		ldr	r0, .L116+24
 1883 0060 FFF7FEFF 		bl	uart_print
 1884              	.LVL251:
 513:main.c        ****     uart_print("  - Servo motor: READY (at 90°)\r\n");
 1885              		.loc 1 513 0
 1886 0064 1A48     		ldr	r0, .L116+28
 1887 0066 FFF7FEFF 		bl	uart_print
 1888              	.LVL252:
 514:main.c        ****     uart_print("\r\n");
 1889              		.loc 1 514 0
 1890 006a 2000     		movs	r0, r4
 1891 006c FFF7FEFF 		bl	uart_print
 1892              	.LVL253:
 515:main.c        ****     uart_print("Type 'H' for help, 'D' for demo\r\n");
 1893              		.loc 1 515 0
 1894 0070 1848     		ldr	r0, .L116+32
 1895 0072 FFF7FEFF 		bl	uart_print
 1896              	.LVL254:
 516:main.c        ****     uart_print("> ");
 1897              		.loc 1 516 0
 1898 0076 1848     		ldr	r0, .L116+36
 1899 0078 FFF7FEFF 		bl	uart_print
 1900              	.LVL255:
 1901              	.L115:
 517:main.c        ****     
 518:main.c        ****     // 主循环
 519:main.c        ****     char cmd;
 520:main.c        ****     for(;;) {
 521:main.c        ****         // 检查UART命令
 522:main.c        ****         cmd = uart_get_char();
 1902              		.loc 1 522 0
 1903 007c FFF7FEFF 		bl	uart_get_char
 1904              	.LVL256:
 1905 0080 051E     		subs	r5, r0, #0
 1906              	.LVL257:
 523:main.c        ****         if(cmd != 0) {
 1907              		.loc 1 523 0
 1908 0082 12D0     		beq	.L112
 524:main.c        ****             // 回显字符
 525:main.c        ****             UART_UartPutChar(cmd);
 1909              		.loc 1 525 0
 1910 0084 FFF7FEFF 		bl	UART_SpiUartWriteTxData
 1911              	.LVL258:
 526:main.c        ****             
 527:main.c        ****             if(cmd == '\r' || cmd == '\n') {
ARM GAS  C:\Users\12548\AppData\Local\Temp\ccQzdz04.s 			page 44


 1912              		.loc 1 527 0
 1913 0088 0D2D     		cmp	r5, #13
 1914 008a 01D0     		beq	.L113
 1915              		.loc 1 527 0 is_stmt 0 discriminator 1
 1916 008c 0A2D     		cmp	r5, #10
 1917 008e 03D1     		bne	.L114
 1918              	.L113:
 528:main.c        ****                 uart_print("\r\n> ");
 1919              		.loc 1 528 0 is_stmt 1
 1920 0090 1248     		ldr	r0, .L116+40
 1921 0092 FFF7FEFF 		bl	uart_print
 1922              	.LVL259:
 1923 0096 08E0     		b	.L112
 1924              	.L114:
 529:main.c        ****             } else {
 530:main.c        ****                 uart_print("\r\n");
 1925              		.loc 1 530 0
 1926 0098 0648     		ldr	r0, .L116
 1927 009a FFF7FEFF 		bl	uart_print
 1928              	.LVL260:
 531:main.c        ****                 process_command(cmd);
 1929              		.loc 1 531 0
 1930 009e 2800     		movs	r0, r5
 1931 00a0 FFF7FEFF 		bl	process_command
 1932              	.LVL261:
 532:main.c        ****                 uart_print("> ");
 1933              		.loc 1 532 0
 1934 00a4 0C48     		ldr	r0, .L116+36
 1935 00a6 FFF7FEFF 		bl	uart_print
 1936              	.LVL262:
 1937              	.L112:
 533:main.c        ****             }
 534:main.c        ****         }
 535:main.c        ****         
 536:main.c        ****         delay_ms(10);
 1938              		.loc 1 536 0
 1939 00aa 0A20     		movs	r0, #10
 1940 00ac FFF7FEFF 		bl	delay_ms
 1941              	.LVL263:
 537:main.c        ****     }
 1942              		.loc 1 537 0
 1943 00b0 E4E7     		b	.L115
 1944              	.L117:
 1945 00b2 C046     		.align	2
 1946              	.L116:
 1947 00b4 EC010000 		.word	.LC49
 1948 00b8 90080000 		.word	.LC177
 1949 00bc C0080000 		.word	.LC179
 1950 00c0 F0080000 		.word	.LC181
 1951 00c4 20090000 		.word	.LC183
 1952 00c8 48090000 		.word	.LC185
 1953 00cc 64090000 		.word	.LC187
 1954 00d0 88090000 		.word	.LC189
 1955 00d4 AC090000 		.word	.LC191
 1956 00d8 D0090000 		.word	.LC193
 1957 00dc D4090000 		.word	.LC195
 1958              		.cfi_endproc
ARM GAS  C:\Users\12548\AppData\Local\Temp\ccQzdz04.s 			page 45


 1959              	.LFE48:
 1960              		.size	main, .-main
 1961              		.global	servo_sweep_active
 1962              		.global	servo_pulse
 1963              		.global	servo_angle
 1964              		.global	stepper_position
 1965              		.global	current_mode
 1966              		.data
 1967              		.align	1
 1968              		.set	.LANCHOR1,. + 0
 1969              		.type	servo_angle, %object
 1970              		.size	servo_angle, 2
 1971              	servo_angle:
 1972 0000 5A00     		.short	90
 1973              		.type	servo_pulse, %object
 1974              		.size	servo_pulse, 2
 1975              	servo_pulse:
 1976 0002 DC05     		.short	1500
 1977              		.section	.rodata.str1.4,"aMS",%progbits,1
 1978              		.align	2
 1979              	.LC0:
 1980 0000 256C6400 		.ascii	"%ld\000"
 1981              	.LC2:
 1982 0004 53544550 		.ascii	"STEPPER: Moving \000"
 1982      5045523A 
 1982      204D6F76 
 1982      696E6720 
 1982      00
 1983 0015 000000   		.space	3
 1984              	.LC4:
 1985 0018 206D6D20 		.ascii	" mm (\000"
 1985      2800
 1986 001e 0000     		.space	2
 1987              	.LC6:
 1988 0020 20737465 		.ascii	" steps)\015\012\000"
 1988      7073290D 
 1988      0A00
 1989 002a 0000     		.space	2
 1990              	.LC8:
 1991 002c 53544550 		.ascii	"STEPPER: Movement interrupted\015\012\000"
 1991      5045523A 
 1991      204D6F76 
 1991      656D656E 
 1991      7420696E 
 1992              	.LC11:
 1993 004c 53544550 		.ascii	"STEPPER: Done! Position: \000"
 1993      5045523A 
 1993      20446F6E 
 1993      65212050 
 1993      6F736974 
 1994 0066 0000     		.space	2
 1995              	.LC13:
 1996 0068 206D6D0D 		.ascii	" mm\015\012\000"
 1996      0A00
 1997 006e 0000     		.space	2
 1998              	.LC16:
 1999 0070 53544550 		.ascii	"STEPPER: Already at position\015\012\000"
ARM GAS  C:\Users\12548\AppData\Local\Temp\ccQzdz04.s 			page 46


 1999      5045523A 
 1999      20416C72 
 1999      65616479 
 1999      20617420 
 2000 008f 00       		.space	1
 2001              	.LC18:
 2002 0090 53544550 		.ascii	"STEPPER: Homing...\015\012\000"
 2002      5045523A 
 2002      20486F6D 
 2002      696E672E 
 2002      2E2E0D0A 
 2003 00a5 000000   		.space	3
 2004              	.LC21:
 2005 00a8 53544550 		.ascii	"STEPPER: Home position set\015\012\000"
 2005      5045523A 
 2005      20486F6D 
 2005      6520706F 
 2005      73697469 
 2006 00c5 000000   		.space	3
 2007              	.LC24:
 2008 00c8 53455256 		.ascii	"SERVO: Angle: \000"
 2008      4F3A2041 
 2008      6E676C65 
 2008      3A2000
 2009 00d7 00       		.space	1
 2010              	.LC26:
 2011 00d8 C2B02C20 		.ascii	"\302\260, Pulse: \000"
 2011      50756C73 
 2011      653A2000 
 2012              	.LC28:
 2013 00e4 75730D0A 		.ascii	"us\015\012\000"
 2013      00
 2014 00e9 000000   		.space	3
 2015              	.LC30:
 2016 00ec 53455256 		.ascii	"SERVO: Starting sweep...\015\012\000"
 2016      4F3A2053 
 2016      74617274 
 2016      696E6720 
 2016      73776565 
 2017 0107 00       		.space	1
 2018              	.LC33:
 2019 0108 53455256 		.ascii	"SERVO: Sweep stopped\015\012\000"
 2019      4F3A2053 
 2019      77656570 
 2019      2073746F 
 2019      70706564 
 2020 011f 00       		.space	1
 2021              	.LC35:
 2022 0120 53455256 		.ascii	"SERVO: Sweep complete, centered\015\012\000"
 2022      4F3A2053 
 2022      77656570 
 2022      20636F6D 
 2022      706C6574 
 2023 0142 0000     		.space	2
 2024              	.LC37:
 2025 0144 0D0A3D3D 		.ascii	"\015\012=== STARTING DEMO MODE ===\015\012\000"
 2025      3D205354 
ARM GAS  C:\Users\12548\AppData\Local\Temp\ccQzdz04.s 			page 47


 2025      41525449 
 2025      4E472044 
 2025      454D4F20 
 2026 0163 00       		.space	1
 2027              	.LC39:
 2028 0164 50726573 		.ascii	"Press any key to stop...\015\012\015\012\000"
 2028      7320616E 
 2028      79206B65 
 2028      7920746F 
 2028      2073746F 
 2029 0181 000000   		.space	3
 2030              	.LC41:
 2031 0184 2D2D2D20 		.ascii	"--- Stepper Motor Demo ---\015\012\000"
 2031      53746570 
 2031      70657220 
 2031      4D6F746F 
 2031      72204465 
 2032 01a1 000000   		.space	3
 2033              	.LC43:
 2034 01a4 0D0A2D2D 		.ascii	"\015\012--- Servo Motor Demo ---\015\012\000"
 2034      2D205365 
 2034      72766F20 
 2034      4D6F746F 
 2034      72204465 
 2035 01c1 000000   		.space	3
 2036              	.LC45:
 2037 01c4 0D0A2D2D 		.ascii	"\015\012--- Coordinated Demo ---\015\012\000"
 2037      2D20436F 
 2037      6F726469 
 2037      6E617465 
 2037      64204465 
 2038 01e1 000000   		.space	3
 2039              	.LC47:
 2040 01e4 4379636C 		.ascii	"Cycle \000"
 2040      652000
 2041 01eb 00       		.space	1
 2042              	.LC49:
 2043 01ec 0D0A00   		.ascii	"\015\012\000"
 2044 01ef 00       		.space	1
 2045              	.LC51:
 2046 01f0 0D0A2D2D 		.ascii	"\015\012--- Resetting to home ---\015\012\000"
 2046      2D205265 
 2046      73657474 
 2046      696E6720 
 2046      746F2068 
 2047 020e 0000     		.space	2
 2048              	.LC53:
 2049 0210 0D0A3D3D 		.ascii	"\015\012=== DEMO COMPLETE ===\015\012\000"
 2049      3D204445 
 2049      4D4F2043 
 2049      4F4D504C 
 2049      45544520 
 2050 022a 0000     		.space	2
 2051              	.LC55:
 2052 022c 0D0A3D3D 		.ascii	"\015\012========== MOTOR CONTROL SYSTEM ==========\015"
 2052      3D3D3D3D 
 2052      3D3D3D3D 
ARM GAS  C:\Users\12548\AppData\Local\Temp\ccQzdz04.s 			page 48


 2052      204D4F54 
 2052      4F522043 
 2053 0259 0A00     		.ascii	"\012\000"
 2054 025b 00       		.space	1
 2055              	.LC57:
 2056 025c 47454E45 		.ascii	"GENERAL COMMANDS:\015\012\000"
 2056      52414C20 
 2056      434F4D4D 
 2056      414E4453 
 2056      3A0D0A00 
 2057              	.LC59:
 2058 0270 20204D31 		.ascii	"  M1  - Switch to Stepper mode\015\012\000"
 2058      20202D20 
 2058      53776974 
 2058      63682074 
 2058      6F205374 
 2059 0291 000000   		.space	3
 2060              	.LC61:
 2061 0294 20204D32 		.ascii	"  M2  - Switch to Servo mode\015\012\000"
 2061      20202D20 
 2061      53776974 
 2061      63682074 
 2061      6F205365 
 2062 02b3 00       		.space	1
 2063              	.LC63:
 2064 02b4 20204420 		.ascii	"  D   - Run demo (both motors)\015\012\000"
 2064      20202D20 
 2064      52756E20 
 2064      64656D6F 
 2064      2028626F 
 2065 02d5 000000   		.space	3
 2066              	.LC65:
 2067 02d8 20205320 		.ascii	"  S   - Show status\015\012\000"
 2067      20202D20 
 2067      53686F77 
 2067      20737461 
 2067      7475730D 
 2068 02ee 0000     		.space	2
 2069              	.LC67:
 2070 02f0 2020482F 		.ascii	"  H/? - Show this help\015\012\000"
 2070      3F202D20 
 2070      53686F77 
 2070      20746869 
 2070      73206865 
 2071 0309 000000   		.space	3
 2072              	.LC69:
 2073 030c 0D0A5354 		.ascii	"\015\012STEPPER COMMANDS (Mode 1):\015\012\000"
 2073      45505045 
 2073      5220434F 
 2073      4D4D414E 
 2073      44532028 
 2074 032b 00       		.space	1
 2075              	.LC71:
 2076 032c 20203120 		.ascii	"  1   - Move up/down 50mm\015\012\000"
 2076      20202D20 
 2076      4D6F7665 
 2076      2075702F 
ARM GAS  C:\Users\12548\AppData\Local\Temp\ccQzdz04.s 			page 49


 2076      646F776E 
 2077              	.LC73:
 2078 0348 20203220 		.ascii	"  2   - Go home (0mm)\015\012\000"
 2078      20202D20 
 2078      476F2068 
 2078      6F6D6520 
 2078      28306D6D 
 2079              	.LC75:
 2080 0360 20203320 		.ascii	"  3   - Go to 50mm\015\012\000"
 2080      20202D20 
 2080      476F2074 
 2080      6F203530 
 2080      6D6D0D0A 
 2081 0375 000000   		.space	3
 2082              	.LC77:
 2083 0378 20203420 		.ascii	"  4   - Continuous test\015\012\000"
 2083      20202D20 
 2083      436F6E74 
 2083      696E756F 
 2083      75732074 
 2084 0392 0000     		.space	2
 2085              	.LC79:
 2086 0394 20205520 		.ascii	"  U   - Move up 10mm\015\012\000"
 2086      20202D20 
 2086      4D6F7665 
 2086      20757020 
 2086      31306D6D 
 2087 03ab 00       		.space	1
 2088              	.LC81:
 2089 03ac 20204A20 		.ascii	"  J   - Move down 10mm\015\012\000"
 2089      20202D20 
 2089      4D6F7665 
 2089      20646F77 
 2089      6E203130 
 2090 03c5 000000   		.space	3
 2091              	.LC83:
 2092 03c8 0D0A5345 		.ascii	"\015\012SERVO COMMANDS (Mode 2):\015\012\000"
 2092      52564F20 
 2092      434F4D4D 
 2092      414E4453 
 2092      20284D6F 
 2093 03e5 000000   		.space	3
 2094              	.LC85:
 2095 03e8 2020413C 		.ascii	"  A<angle> - Set angle (0-180)\015\012\000"
 2095      616E676C 
 2095      653E202D 
 2095      20536574 
 2095      20616E67 
 2096 0409 000000   		.space	3
 2097              	.LC87:
 2098 040c 20205720 		.ascii	"  W   - Start sweep\015\012\000"
 2098      20202D20 
 2098      53746172 
 2098      74207377 
 2098      6565700D 
 2099 0422 0000     		.space	2
 2100              	.LC89:
ARM GAS  C:\Users\12548\AppData\Local\Temp\ccQzdz04.s 			page 50


 2101 0424 20205020 		.ascii	"  P   - Stop sweep\015\012\000"
 2101      20202D20 
 2101      53746F70 
 2101      20737765 
 2101      65700D0A 
 2102 0439 000000   		.space	3
 2103              	.LC91:
 2104 043c 20203020 		.ascii	"  0   - Go to 0\302\260\015\012\000"
 2104      20202D20 
 2104      476F2074 
 2104      6F2030C2 
 2104      B00D0A00 
 2105              	.LC93:
 2106 0450 20203520 		.ascii	"  5   - Go to 90\302\260\015\012\000"
 2106      20202D20 
 2106      476F2074 
 2106      6F203930 
 2106      C2B00D0A 
 2107 0465 000000   		.space	3
 2108              	.LC95:
 2109 0468 20203920 		.ascii	"  9   - Go to 180\302\260\015\012\000"
 2109      20202D20 
 2109      476F2074 
 2109      6F203138 
 2109      30C2B00D 
 2110 047e 0000     		.space	2
 2111              	.LC97:
 2112 0480 3D3D3D3D 		.ascii	"==========================================\015\012\015"
 2112      3D3D3D3D 
 2112      3D3D3D3D 
 2112      3D3D3D3D 
 2112      3D3D3D3D 
 2113 04ad 0A00     		.ascii	"\012\000"
 2114 04af 00       		.space	1
 2115              	.LC99:
 2116 04b0 0D0A3D3D 		.ascii	"\015\012=== SYSTEM STATUS ===\015\012\000"
 2116      3D205359 
 2116      5354454D 
 2116      20535441 
 2116      54555320 
 2117 04ca 0000     		.space	2
 2118              	.LC101:
 2119 04cc 4D6F6465 		.ascii	"Mode: \000"
 2119      3A2000
 2120 04d3 00       		.space	1
 2121              	.LC104:
 2122 04d4 49444C45 		.ascii	"IDLE\000"
 2122      00
 2123 04d9 000000   		.space	3
 2124              	.LC106:
 2125 04dc 53544550 		.ascii	"STEPPER\000"
 2125      50455200 
 2126              	.LC108:
 2127 04e4 53455256 		.ascii	"SERVO\000"
 2127      4F00
 2128 04ea 0000     		.space	2
 2129              	.LC110:
ARM GAS  C:\Users\12548\AppData\Local\Temp\ccQzdz04.s 			page 51


 2130 04ec 44454D4F 		.ascii	"DEMO\000"
 2130      00
 2131 04f1 000000   		.space	3
 2132              	.LC113:
 2133 04f4 53746570 		.ascii	"Stepper Position: \000"
 2133      70657220 
 2133      506F7369 
 2133      74696F6E 
 2133      3A2000
 2134 0507 00       		.space	1
 2135              	.LC117:
 2136 0508 53657276 		.ascii	"Servo Angle: \000"
 2136      6F20416E 
 2136      676C653A 
 2136      2000
 2137 0516 0000     		.space	2
 2138              	.LC120:
 2139 0518 C2B02028 		.ascii	"\302\260 (pulse: \000"
 2139      70756C73 
 2139      653A2000 
 2140              	.LC122:
 2141 0524 20757329 		.ascii	" us)\015\012\000"
 2141      0D0A00
 2142 052b 00       		.space	1
 2143              	.LC124:
 2144 052c 3D3D3D3D 		.ascii	"====================\015\012\015\012\000"
 2144      3D3D3D3D 
 2144      3D3D3D3D 
 2144      3D3D3D3D 
 2144      3D3D3D3D 
 2145 0545 000000   		.space	3
 2146              	.LC128:
 2147 0548 53656C65 		.ascii	"Select mode: 1=Stepper, 2=Servo: \000"
 2147      6374206D 
 2147      6F64653A 
 2147      20313D53 
 2147      74657070 
 2148 056a 0000     		.space	2
 2149              	.LC131:
 2150 056c 53776974 		.ascii	"Switched to STEPPER mode\015\012\000"
 2150      63686564 
 2150      20746F20 
 2150      53544550 
 2150      50455220 
 2151 0587 00       		.space	1
 2152              	.LC133:
 2153 0588 53776974 		.ascii	"Switched to SERVO mode\015\012\000"
 2153      63686564 
 2153      20746F20 
 2153      53455256 
 2153      4F206D6F 
 2154 05a1 000000   		.space	3
 2155              	.LC135:
 2156 05a4 496E7661 		.ascii	"Invalid mode. Use M1 or M2\015\012\000"
 2156      6C696420 
 2156      6D6F6465 
 2156      2E205573 
ARM GAS  C:\Users\12548\AppData\Local\Temp\ccQzdz04.s 			page 52


 2156      65204D31 
 2157 05c1 000000   		.space	3
 2158              	.LC137:
 2159 05c4 54657374 		.ascii	"Test: Up/Down 50mm\015\012\000"
 2159      3A205570 
 2159      2F446F77 
 2159      6E203530 
 2159      6D6D0D0A 
 2160 05d9 000000   		.space	3
 2161              	.LC139:
 2162 05dc 4175746F 		.ascii	"Auto-switched to STEPPER mode\015\012\000"
 2162      2D737769 
 2162      74636865 
 2162      6420746F 
 2162      20535445 
 2163              	.LC141:
 2164 05fc 4175746F 		.ascii	"Auto-switched to SERVO mode\015\012\000"
 2164      2D737769 
 2164      74636865 
 2164      6420746F 
 2164      20534552 
 2165 061a 0000     		.space	2
 2166              	.LC143:
 2167 061c 436F6D6D 		.ascii	"Command '3' is for STEPPER mode. Current mode: \000"
 2167      616E6420 
 2167      27332720 
 2167      69732066 
 2167      6F722053 
 2168              	.LC147:
 2169 064c 436F6E74 		.ascii	"Continuous test (press any key to stop)\015\012\000"
 2169      696E756F 
 2169      75732074 
 2169      65737420 
 2169      28707265 
 2170 0676 0000     		.space	2
 2171              	.LC149:
 2172 0678 53746F70 		.ascii	"Stopped\015\012\000"
 2172      7065640D 
 2172      0A00
 2173 0682 0000     		.space	2
 2174              	.LC151:
 2175 0684 436F6D6D 		.ascii	"Command '4' is for STEPPER mode. Use M1 first.\015\012"
 2175      616E6420 
 2175      27342720 
 2175      69732066 
 2175      6F722053 
 2176 06b4 00       		.ascii	"\000"
 2177 06b5 000000   		.space	3
 2178              	.LC153:
 2179 06b8 436F6D6D 		.ascii	"Command 'U' is for STEPPER mode. Use M1 first.\015\012"
 2179      616E6420 
 2179      27552720 
 2179      69732066 
 2179      6F722053 
 2180 06e8 00       		.ascii	"\000"
 2181 06e9 000000   		.space	3
 2182              	.LC155:
ARM GAS  C:\Users\12548\AppData\Local\Temp\ccQzdz04.s 			page 53


 2183 06ec 436F6D6D 		.ascii	"Command 'J' is for STEPPER mode. Use M1 first.\015\012"
 2183      616E6420 
 2183      274A2720 
 2183      69732066 
 2183      6F722053 
 2184 071c 00       		.ascii	"\000"
 2185 071d 000000   		.space	3
 2186              	.LC157:
 2187 0720 456E7465 		.ascii	"Enter angle (0-180): \000"
 2187      7220616E 
 2187      676C6520 
 2187      28302D31 
 2187      3830293A 
 2188 0736 0000     		.space	2
 2189              	.LC159:
 2190 0738 436F6D6D 		.ascii	"Command 'A' is for SERVO mode. Use M2 first.\015\012"
 2190      616E6420 
 2190      27412720 
 2190      69732066 
 2190      6F722053 
 2191 0766 00       		.ascii	"\000"
 2192 0767 00       		.space	1
 2193              	.LC161:
 2194 0768 436F6D6D 		.ascii	"Command 'W' is for SERVO mode. Use M2 first.\015\012"
 2194      616E6420 
 2194      27572720 
 2194      69732066 
 2194      6F722053 
 2195 0796 00       		.ascii	"\000"
 2196 0797 00       		.space	1
 2197              	.LC163:
 2198 0798 53776565 		.ascii	"Sweep stopped\015\012\000"
 2198      70207374 
 2198      6F707065 
 2198      640D0A00 
 2199              	.LC165:
 2200 07a8 436F6D6D 		.ascii	"Command 'P' is for SERVO mode. Use M2 first.\015\012"
 2200      616E6420 
 2200      27502720 
 2200      69732066 
 2200      6F722053 
 2201 07d6 00       		.ascii	"\000"
 2202 07d7 00       		.space	1
 2203              	.LC167:
 2204 07d8 436F6D6D 		.ascii	"Command '0' is for SERVO mode. Use M2 first.\015\012"
 2204      616E6420 
 2204      27302720 
 2204      69732066 
 2204      6F722053 
 2205 0806 00       		.ascii	"\000"
 2206 0807 00       		.space	1
 2207              	.LC169:
 2208 0808 436F6D6D 		.ascii	"Command '5' is for SERVO mode. Use M2 first.\015\012"
 2208      616E6420 
 2208      27352720 
 2208      69732066 
 2208      6F722053 
ARM GAS  C:\Users\12548\AppData\Local\Temp\ccQzdz04.s 			page 54


 2209 0836 00       		.ascii	"\000"
 2210 0837 00       		.space	1
 2211              	.LC171:
 2212 0838 436F6D6D 		.ascii	"Command '9' is for SERVO mode. Use M2 first.\015\012"
 2212      616E6420 
 2212      27392720 
 2212      69732066 
 2212      6F722053 
 2213 0866 00       		.ascii	"\000"
 2214 0867 00       		.space	1
 2215              	.LC173:
 2216 0868 556E6B6E 		.ascii	"Unknown command. Type 'H' for help.\015\012\000"
 2216      6F776E20 
 2216      636F6D6D 
 2216      616E642E 
 2216      20547970 
 2217 088e 0000     		.space	2
 2218              	.LC177:
 2219 0890 2A2A2A2A 		.ascii	"*******************************************\015\012"
 2219      2A2A2A2A 
 2219      2A2A2A2A 
 2219      2A2A2A2A 
 2219      2A2A2A2A 
 2220 08bd 00       		.ascii	"\000"
 2221 08be 0000     		.space	2
 2222              	.LC179:
 2223 08c0 2A202020 		.ascii	"*     PSoC 4500S MOTOR CONTROL SYSTEM    *\015\012\000"
 2223      20205053 
 2223      6F432034 
 2223      35303053 
 2223      204D4F54 
 2224 08ed 000000   		.space	3
 2225              	.LC181:
 2226 08f0 2A202020 		.ascii	"*         Stepper + Servo Control        *\015\012\000"
 2226      20202020 
 2226      20205374 
 2226      65707065 
 2226      72202B20 
 2227 091d 000000   		.space	3
 2228              	.LC183:
 2229 0920 56657273 		.ascii	"Version 1.0 - Integrated Test System\015\012\000"
 2229      696F6E20 
 2229      312E3020 
 2229      2D20496E 
 2229      74656772 
 2230 0947 00       		.space	1
 2231              	.LC185:
 2232 0948 496E6974 		.ascii	"Initialization complete!\015\012\000"
 2232      69616C69 
 2232      7A617469 
 2232      6F6E2063 
 2232      6F6D706C 
 2233 0963 00       		.space	1
 2234              	.LC187:
 2235 0964 20202D20 		.ascii	"  - Stepper motor: READY (at 0mm)\015\012\000"
 2235      53746570 
 2235      70657220 
ARM GAS  C:\Users\12548\AppData\Local\Temp\ccQzdz04.s 			page 55


 2235      6D6F746F 
 2235      723A2052 
 2236              	.LC189:
 2237 0988 20202D20 		.ascii	"  - Servo motor: READY (at 90\302\260)\015\012\000"
 2237      53657276 
 2237      6F206D6F 
 2237      746F723A 
 2237      20524541 
 2238 09ab 00       		.space	1
 2239              	.LC191:
 2240 09ac 54797065 		.ascii	"Type 'H' for help, 'D' for demo\015\012\000"
 2240      20274827 
 2240      20666F72 
 2240      2068656C 
 2240      702C2027 
 2241 09ce 0000     		.space	2
 2242              	.LC193:
 2243 09d0 3E2000   		.ascii	"> \000"
 2244 09d3 00       		.space	1
 2245              	.LC195:
 2246 09d4 0D0A3E20 		.ascii	"\015\012> \000"
 2246      00
 2247              		.bss
 2248              		.align	2
 2249              		.set	.LANCHOR0,. + 0
 2250              		.type	stepper_position, %object
 2251              		.size	stepper_position, 4
 2252              	stepper_position:
 2253 0000 00000000 		.space	4
 2254              		.type	servo_sweep_active, %object
 2255              		.size	servo_sweep_active, 1
 2256              	servo_sweep_active:
 2257 0004 00       		.space	1
 2258              		.type	current_mode, %object
 2259              		.size	current_mode, 1
 2260              	current_mode:
 2261 0005 00       		.space	1
 2262              		.type	angle_index.7145, %object
 2263              		.size	angle_index.7145, 1
 2264              	angle_index.7145:
 2265 0006 00       		.space	1
 2266 0007 00       		.space	1
 2267              		.type	angle_buffer.7144, %object
 2268              		.size	angle_buffer.7144, 10
 2269              	angle_buffer.7144:
 2270 0008 00000000 		.space	10
 2270      00000000 
 2270      0000
 2271              		.text
 2272              	.Letext0:
 2273              		.file 2 "c:\\program files (x86)\\cypress\\psoc creator\\4.4\\psoc creator\\import\\gnu\\arm\\5.4.
 2274              		.file 3 "c:\\program files (x86)\\cypress\\psoc creator\\4.4\\psoc creator\\import\\gnu\\arm\\5.4.
 2275              		.file 4 "Generated_Source\\PSoC4/cytypes.h"
 2276              		.file 5 "Generated_Source\\PSoC4/UART_SPI_UART.h"
 2277              		.file 6 "c:\\program files (x86)\\cypress\\psoc creator\\4.4\\psoc creator\\import\\gnu\\arm\\5.4.
 2278              		.file 7 "Generated_Source\\PSoC4/CyLib.h"
 2279              		.file 8 "Generated_Source\\PSoC4/Pin_STEP.h"
ARM GAS  C:\Users\12548\AppData\Local\Temp\ccQzdz04.s 			page 56


 2280              		.file 9 "Generated_Source\\PSoC4/Pin_DIR.h"
 2281              		.file 10 "Generated_Source\\PSoC4/PWM_Servo.h"
 2282              		.file 11 "c:\\program files (x86)\\cypress\\psoc creator\\4.4\\psoc creator\\import\\gnu\\arm\\5.4
 2283              		.file 12 "Generated_Source\\PSoC4/UART.h"
 2284              		.file 13 "Generated_Source\\PSoC4/Pin_ENABLE.h"