ARM GAS  C:\Users\12548\AppData\Local\Temp\ccPA1h2Z.s 			page 1


   1              		.syntax unified
   2              		.cpu cortex-m0plus
   3              		.fpu softvfp
   4              		.eabi_attribute 20, 1
   5              		.eabi_attribute 21, 1
   6              		.eabi_attribute 23, 3
   7              		.eabi_attribute 24, 1
   8              		.eabi_attribute 25, 1
   9              		.eabi_attribute 26, 1
  10              		.eabi_attribute 30, 1
  11              		.eabi_attribute 34, 0
  12              		.eabi_attribute 18, 4
  13              		.thumb
  14              		.syntax unified
  15              		.file	"main.c"
  16              		.text
  17              	.Ltext0:
  18              		.cfi_sections	.debug_frame
  19              		.section	.text.uart_print,"ax",%progbits
  20              		.align	2
  21              		.global	uart_print
  22              		.code	16
  23              		.thumb_func
  24              		.type	uart_print, %function
  25              	uart_print:
  26              	.LFB34:
  27              		.file 1 "main.c"
   1:main.c        **** /*
   2:main.c        ****  * main.c - VL6180X距离传感器完整版本
   3:main.c        ****  * 包含初始化和距离测量功能
   4:main.c        ****  */
   5:main.c        **** 
   6:main.c        **** #include "project.h"
   7:main.c        **** #include <stdio.h>
   8:main.c        **** 
   9:main.c        **** // VL6180X寄存器地址
  10:main.c        **** #define VL6180X_I2C_ADDR                    0x29
  11:main.c        **** 
  12:main.c        **** // 系统寄存器
  13:main.c        **** #define VL6180X_IDENTIFICATION_MODEL_ID     0x000
  14:main.c        **** #define VL6180X_IDENTIFICATION_MODEL_REV    0x001
  15:main.c        **** #define VL6180X_IDENTIFICATION_MODULE_REV   0x002
  16:main.c        **** #define VL6180X_IDENTIFICATION_DATE_HI      0x006
  17:main.c        **** #define VL6180X_IDENTIFICATION_DATE_LO      0x007
  18:main.c        **** #define VL6180X_IDENTIFICATION_TIME         0x008
  19:main.c        **** 
  20:main.c        **** #define VL6180X_SYSTEM_MODE_GPIO0           0x010
  21:main.c        **** #define VL6180X_SYSTEM_MODE_GPIO1           0x011
  22:main.c        **** #define VL6180X_SYSTEM_HISTORY_CTRL         0x012
  23:main.c        **** #define VL6180X_SYSTEM_INTERRUPT_CONFIG_GPIO 0x014
  24:main.c        **** #define VL6180X_SYSTEM_INTERRUPT_CLEAR      0x015
  25:main.c        **** #define VL6180X_SYSTEM_FRESH_OUT_OF_RESET   0x016
  26:main.c        **** #define VL6180X_SYSTEM_GROUPED_PARAMETER_HOLD 0x017
  27:main.c        **** 
  28:main.c        **** // 测距寄存器
  29:main.c        **** #define VL6180X_SYSRANGE_START              0x018
  30:main.c        **** #define VL6180X_SYSRANGE_THRESH_HIGH        0x019
ARM GAS  C:\Users\12548\AppData\Local\Temp\ccPA1h2Z.s 			page 2


  31:main.c        **** #define VL6180X_SYSRANGE_THRESH_LOW         0x01A
  32:main.c        **** #define VL6180X_SYSRANGE_INTERMEASUREMENT_PERIOD 0x01B
  33:main.c        **** #define VL6180X_SYSRANGE_MAX_CONVERGENCE_TIME 0x01C
  34:main.c        **** #define VL6180X_SYSRANGE_RANGE_CHECK_ENABLES 0x02D
  35:main.c        **** #define VL6180X_SYSRANGE_VHV_RECALIBRATE    0x02E
  36:main.c        **** #define VL6180X_SYSRANGE_VHV_REPEAT_RATE    0x031
  37:main.c        **** 
  38:main.c        **** // 结果寄存器
  39:main.c        **** #define VL6180X_RESULT_RANGE_STATUS         0x04D
  40:main.c        **** #define VL6180X_RESULT_INTERRUPT_STATUS_GPIO 0x04F
  41:main.c        **** #define VL6180X_RESULT_RANGE_VAL            0x062
  42:main.c        **** #define VL6180X_RESULT_HISTORY_BUFFER_0     0x052
  43:main.c        **** #define VL6180X_RESULT_HISTORY_BUFFER_1     0x053
  44:main.c        **** 
  45:main.c        **** // 函数声明
  46:main.c        **** void uart_print(char* str);
  47:main.c        **** void uart_print_number(uint16 num);
  48:main.c        **** void uart_print_hex(uint8 value);
  49:main.c        **** uint8 vl6180x_read_byte(uint16 reg_addr);
  50:main.c        **** void vl6180x_write_byte(uint16 reg_addr, uint8 data);
  51:main.c        **** uint8 vl6180x_init(void);
  52:main.c        **** uint8 vl6180x_read_distance(void);
  53:main.c        **** void vl6180x_configure_default(void);
  54:main.c        **** void display_status_code(uint8 status);
  55:main.c        **** 
  56:main.c        **** // UART输出函数
  57:main.c        **** void uart_print(char* str)
  58:main.c        **** {
  28              		.loc 1 58 0
  29              		.cfi_startproc
  30              		@ args = 0, pretend = 0, frame = 0
  31              		@ frame_needed = 0, uses_anonymous_args = 0
  32              	.LVL0:
  33 0000 10B5     		push	{r4, lr}
  34              		.cfi_def_cfa_offset 8
  35              		.cfi_offset 4, -8
  36              		.cfi_offset 14, -4
  59:main.c        ****     UART_UartPutString(str);
  37              		.loc 1 59 0
  38 0002 FFF7FEFF 		bl	UART_UartPutString
  39              	.LVL1:
  60:main.c        **** }
  40              		.loc 1 60 0
  41              		@ sp needed
  42 0006 10BD     		pop	{r4, pc}
  43              		.cfi_endproc
  44              	.LFE34:
  45              		.size	uart_print, .-uart_print
  46              		.section	.text.uart_print_number,"ax",%progbits
  47              		.align	2
  48              		.global	uart_print_number
  49              		.code	16
  50              		.thumb_func
  51              		.type	uart_print_number, %function
  52              	uart_print_number:
  53              	.LFB35:
  61:main.c        **** 
ARM GAS  C:\Users\12548\AppData\Local\Temp\ccPA1h2Z.s 			page 3


  62:main.c        **** void uart_print_number(uint16 num)
  63:main.c        **** {
  54              		.loc 1 63 0
  55              		.cfi_startproc
  56              		@ args = 0, pretend = 0, frame = 16
  57              		@ frame_needed = 0, uses_anonymous_args = 0
  58              	.LVL2:
  59 0000 00B5     		push	{lr}
  60              		.cfi_def_cfa_offset 4
  61              		.cfi_offset 14, -4
  62 0002 85B0     		sub	sp, sp, #20
  63              		.cfi_def_cfa_offset 24
  64 0004 0200     		movs	r2, r0
  64:main.c        ****     char buffer[10];
  65:main.c        ****     sprintf(buffer, "%d", num);
  65              		.loc 1 65 0
  66 0006 0449     		ldr	r1, .L3
  67 0008 01A8     		add	r0, sp, #4
  68              	.LVL3:
  69 000a FFF7FEFF 		bl	sprintf
  70              	.LVL4:
  66:main.c        ****     uart_print(buffer);
  71              		.loc 1 66 0
  72 000e 01A8     		add	r0, sp, #4
  73 0010 FFF7FEFF 		bl	uart_print
  74              	.LVL5:
  67:main.c        **** }
  75              		.loc 1 67 0
  76 0014 05B0     		add	sp, sp, #20
  77              		@ sp needed
  78 0016 00BD     		pop	{pc}
  79              	.L4:
  80              		.align	2
  81              	.L3:
  82 0018 00000000 		.word	.LC0
  83              		.cfi_endproc
  84              	.LFE35:
  85              		.size	uart_print_number, .-uart_print_number
  86              		.section	.text.uart_print_hex,"ax",%progbits
  87              		.align	2
  88              		.global	uart_print_hex
  89              		.code	16
  90              		.thumb_func
  91              		.type	uart_print_hex, %function
  92              	uart_print_hex:
  93              	.LFB36:
  68:main.c        **** 
  69:main.c        **** void uart_print_hex(uint8 value)
  70:main.c        **** {
  94              		.loc 1 70 0
  95              		.cfi_startproc
  96              		@ args = 0, pretend = 0, frame = 8
  97              		@ frame_needed = 0, uses_anonymous_args = 0
  98              	.LVL6:
  99 0000 00B5     		push	{lr}
 100              		.cfi_def_cfa_offset 4
 101              		.cfi_offset 14, -4
ARM GAS  C:\Users\12548\AppData\Local\Temp\ccPA1h2Z.s 			page 4


 102 0002 83B0     		sub	sp, sp, #12
 103              		.cfi_def_cfa_offset 16
 104 0004 0200     		movs	r2, r0
  71:main.c        ****     char buffer[5];
  72:main.c        ****     sprintf(buffer, "0x%02X", value);
 105              		.loc 1 72 0
 106 0006 0449     		ldr	r1, .L6
 107 0008 6846     		mov	r0, sp
 108              	.LVL7:
 109 000a FFF7FEFF 		bl	sprintf
 110              	.LVL8:
  73:main.c        ****     uart_print(buffer);
 111              		.loc 1 73 0
 112 000e 6846     		mov	r0, sp
 113 0010 FFF7FEFF 		bl	uart_print
 114              	.LVL9:
  74:main.c        **** }
 115              		.loc 1 74 0
 116 0014 03B0     		add	sp, sp, #12
 117              		@ sp needed
 118 0016 00BD     		pop	{pc}
 119              	.L7:
 120              		.align	2
 121              	.L6:
 122 0018 04000000 		.word	.LC2
 123              		.cfi_endproc
 124              	.LFE36:
 125              		.size	uart_print_hex, .-uart_print_hex
 126              		.section	.text.vl6180x_write_byte,"ax",%progbits
 127              		.align	2
 128              		.global	vl6180x_write_byte
 129              		.code	16
 130              		.thumb_func
 131              		.type	vl6180x_write_byte, %function
 132              	vl6180x_write_byte:
 133              	.LFB37:
  75:main.c        **** 
  76:main.c        **** // VL6180X写字节
  77:main.c        **** void vl6180x_write_byte(uint16 reg_addr, uint8 data)
  78:main.c        **** {
 134              		.loc 1 78 0
 135              		.cfi_startproc
 136              		@ args = 0, pretend = 0, frame = 0
 137              		@ frame_needed = 0, uses_anonymous_args = 0
 138              	.LVL10:
 139 0000 70B5     		push	{r4, r5, r6, lr}
 140              		.cfi_def_cfa_offset 16
 141              		.cfi_offset 4, -16
 142              		.cfi_offset 5, -12
 143              		.cfi_offset 6, -8
 144              		.cfi_offset 14, -4
 145 0002 0400     		movs	r4, r0
 146 0004 0E00     		movs	r6, r1
  79:main.c        ****     uint32 status;
  80:main.c        ****     
  81:main.c        ****     status = I2C_Distance_I2CMasterSendStart(VL6180X_I2C_ADDR, I2C_Distance_I2C_WRITE_XFER_MODE, 10
 147              		.loc 1 81 0
ARM GAS  C:\Users\12548\AppData\Local\Temp\ccPA1h2Z.s 			page 5


 148 0006 FA22     		movs	r2, #250
 149 0008 9200     		lsls	r2, r2, #2
 150 000a 0021     		movs	r1, #0
 151              	.LVL11:
 152 000c 2920     		movs	r0, #41
 153              	.LVL12:
 154 000e FFF7FEFF 		bl	I2C_Distance_I2CMasterSendStart
 155              	.LVL13:
  82:main.c        ****     if(status != I2C_Distance_I2C_MSTR_NO_ERROR) {
 156              		.loc 1 82 0
 157 0012 0028     		cmp	r0, #0
 158 0014 04D0     		beq	.L9
  83:main.c        ****         I2C_Distance_I2CMasterSendStop(1000);
 159              		.loc 1 83 0
 160 0016 FA20     		movs	r0, #250
 161              	.LVL14:
 162 0018 8000     		lsls	r0, r0, #2
 163 001a FFF7FEFF 		bl	I2C_Distance_I2CMasterSendStop
 164              	.LVL15:
  84:main.c        ****         return;
 165              		.loc 1 84 0
 166 001e 14E0     		b	.L8
 167              	.LVL16:
 168              	.L9:
  85:main.c        ****     }
  86:main.c        ****     
  87:main.c        ****     I2C_Distance_I2CMasterWriteByte((reg_addr >> 8) & 0xFF, 1000);
 169              		.loc 1 87 0
 170 0020 FA25     		movs	r5, #250
 171 0022 AD00     		lsls	r5, r5, #2
 172 0024 200A     		lsrs	r0, r4, #8
 173              	.LVL17:
 174 0026 2900     		movs	r1, r5
 175 0028 FFF7FEFF 		bl	I2C_Distance_I2CMasterWriteByte
 176              	.LVL18:
  88:main.c        ****     I2C_Distance_I2CMasterWriteByte(reg_addr & 0xFF, 1000);
 177              		.loc 1 88 0
 178 002c FF20     		movs	r0, #255
 179 002e 2040     		ands	r0, r4
 180 0030 2900     		movs	r1, r5
 181 0032 FFF7FEFF 		bl	I2C_Distance_I2CMasterWriteByte
 182              	.LVL19:
  89:main.c        ****     I2C_Distance_I2CMasterWriteByte(data, 1000);
 183              		.loc 1 89 0
 184 0036 2900     		movs	r1, r5
 185 0038 3000     		movs	r0, r6
 186 003a FFF7FEFF 		bl	I2C_Distance_I2CMasterWriteByte
 187              	.LVL20:
  90:main.c        ****     I2C_Distance_I2CMasterSendStop(1000);
 188              		.loc 1 90 0
 189 003e 2800     		movs	r0, r5
 190 0040 FFF7FEFF 		bl	I2C_Distance_I2CMasterSendStop
 191              	.LVL21:
  91:main.c        ****     CyDelay(1);
 192              		.loc 1 91 0
 193 0044 0120     		movs	r0, #1
 194 0046 FFF7FEFF 		bl	CyDelay
ARM GAS  C:\Users\12548\AppData\Local\Temp\ccPA1h2Z.s 			page 6


 195              	.LVL22:
 196              	.L8:
  92:main.c        **** }
 197              		.loc 1 92 0
 198              		@ sp needed
 199 004a 70BD     		pop	{r4, r5, r6, pc}
 200              		.cfi_endproc
 201              	.LFE37:
 202              		.size	vl6180x_write_byte, .-vl6180x_write_byte
 203              		.section	.text.vl6180x_read_byte,"ax",%progbits
 204              		.align	2
 205              		.global	vl6180x_read_byte
 206              		.code	16
 207              		.thumb_func
 208              		.type	vl6180x_read_byte, %function
 209              	vl6180x_read_byte:
 210              	.LFB38:
  93:main.c        **** 
  94:main.c        **** // VL6180X读字节
  95:main.c        **** uint8 vl6180x_read_byte(uint16 reg_addr)
  96:main.c        **** {
 211              		.loc 1 96 0
 212              		.cfi_startproc
 213              		@ args = 0, pretend = 0, frame = 8
 214              		@ frame_needed = 0, uses_anonymous_args = 0
 215              	.LVL23:
 216 0000 30B5     		push	{r4, r5, lr}
 217              		.cfi_def_cfa_offset 12
 218              		.cfi_offset 4, -12
 219              		.cfi_offset 5, -8
 220              		.cfi_offset 14, -4
 221 0002 83B0     		sub	sp, sp, #12
 222              		.cfi_def_cfa_offset 24
 223 0004 0500     		movs	r5, r0
  97:main.c        ****     uint32 status;
  98:main.c        ****     uint8 read_data = 0;
 224              		.loc 1 98 0
 225 0006 0022     		movs	r2, #0
 226 0008 6B46     		mov	r3, sp
 227 000a DA71     		strb	r2, [r3, #7]
  99:main.c        ****     
 100:main.c        ****     // 写地址
 101:main.c        ****     status = I2C_Distance_I2CMasterSendStart(VL6180X_I2C_ADDR, I2C_Distance_I2C_WRITE_XFER_MODE, 10
 228              		.loc 1 101 0
 229 000c FA22     		movs	r2, #250
 230 000e 9200     		lsls	r2, r2, #2
 231 0010 0021     		movs	r1, #0
 232 0012 2920     		movs	r0, #41
 233              	.LVL24:
 234 0014 FFF7FEFF 		bl	I2C_Distance_I2CMasterSendStart
 235              	.LVL25:
 102:main.c        ****     if(status != I2C_Distance_I2C_MSTR_NO_ERROR) {
 236              		.loc 1 102 0
 237 0018 0028     		cmp	r0, #0
 238 001a 05D0     		beq	.L12
 103:main.c        ****         I2C_Distance_I2CMasterSendStop(1000);
 239              		.loc 1 103 0
ARM GAS  C:\Users\12548\AppData\Local\Temp\ccPA1h2Z.s 			page 7


 240 001c FA20     		movs	r0, #250
 241              	.LVL26:
 242 001e 8000     		lsls	r0, r0, #2
 243 0020 FFF7FEFF 		bl	I2C_Distance_I2CMasterSendStop
 244              	.LVL27:
 104:main.c        ****         return 0;
 245              		.loc 1 104 0
 246 0024 0020     		movs	r0, #0
 247 0026 1AE0     		b	.L13
 248              	.LVL28:
 249              	.L12:
 105:main.c        ****     }
 106:main.c        ****     
 107:main.c        ****     I2C_Distance_I2CMasterWriteByte((reg_addr >> 8) & 0xFF, 1000);
 250              		.loc 1 107 0
 251 0028 FA24     		movs	r4, #250
 252 002a A400     		lsls	r4, r4, #2
 253 002c 280A     		lsrs	r0, r5, #8
 254              	.LVL29:
 255 002e 2100     		movs	r1, r4
 256 0030 FFF7FEFF 		bl	I2C_Distance_I2CMasterWriteByte
 257              	.LVL30:
 108:main.c        ****     I2C_Distance_I2CMasterWriteByte(reg_addr & 0xFF, 1000);
 258              		.loc 1 108 0
 259 0034 FF20     		movs	r0, #255
 260 0036 2840     		ands	r0, r5
 261 0038 2100     		movs	r1, r4
 262 003a FFF7FEFF 		bl	I2C_Distance_I2CMasterWriteByte
 263              	.LVL31:
 109:main.c        ****     
 110:main.c        ****     // 读数据
 111:main.c        ****     I2C_Distance_I2CMasterSendRestart(VL6180X_I2C_ADDR, I2C_Distance_I2C_READ_XFER_MODE, 1000);
 264              		.loc 1 111 0
 265 003e 2200     		movs	r2, r4
 266 0040 0121     		movs	r1, #1
 267 0042 2920     		movs	r0, #41
 268 0044 FFF7FEFF 		bl	I2C_Distance_I2CMasterSendRestart
 269              	.LVL32:
 112:main.c        ****     I2C_Distance_I2CMasterReadByte(I2C_Distance_I2C_NAK_DATA, &read_data, 1000);
 270              		.loc 1 112 0
 271 0048 6B46     		mov	r3, sp
 272 004a DD1D     		adds	r5, r3, #7
 273 004c 2200     		movs	r2, r4
 274 004e 2900     		movs	r1, r5
 275 0050 0120     		movs	r0, #1
 276 0052 FFF7FEFF 		bl	I2C_Distance_I2CMasterReadByte
 277              	.LVL33:
 113:main.c        ****     I2C_Distance_I2CMasterSendStop(1000);
 278              		.loc 1 113 0
 279 0056 2000     		movs	r0, r4
 280 0058 FFF7FEFF 		bl	I2C_Distance_I2CMasterSendStop
 281              	.LVL34:
 114:main.c        ****     
 115:main.c        ****     return read_data;
 282              		.loc 1 115 0
 283 005c 2878     		ldrb	r0, [r5]
 284              	.L13:
ARM GAS  C:\Users\12548\AppData\Local\Temp\ccPA1h2Z.s 			page 8


 116:main.c        **** }
 285              		.loc 1 116 0
 286 005e 03B0     		add	sp, sp, #12
 287              		@ sp needed
 288 0060 30BD     		pop	{r4, r5, pc}
 289              		.cfi_endproc
 290              	.LFE38:
 291              		.size	vl6180x_read_byte, .-vl6180x_read_byte
 292 0062 C046     		.section	.text.vl6180x_configure_default,"ax",%progbits
 293              		.align	2
 294              		.global	vl6180x_configure_default
 295              		.code	16
 296              		.thumb_func
 297              		.type	vl6180x_configure_default, %function
 298              	vl6180x_configure_default:
 299              	.LFB39:
 117:main.c        **** 
 118:main.c        **** // VL6180X默认配置
 119:main.c        **** void vl6180x_configure_default(void)
 120:main.c        **** {
 300              		.loc 1 120 0
 301              		.cfi_startproc
 302              		@ args = 0, pretend = 0, frame = 0
 303              		@ frame_needed = 0, uses_anonymous_args = 0
 304 0000 10B5     		push	{r4, lr}
 305              		.cfi_def_cfa_offset 8
 306              		.cfi_offset 4, -8
 307              		.cfi_offset 14, -4
 121:main.c        ****     // 必需的初始化序列（来自ST应用笔记）
 122:main.c        ****     vl6180x_write_byte(0x0207, 0x01);
 308              		.loc 1 122 0
 309 0002 0121     		movs	r1, #1
 310 0004 4A48     		ldr	r0, .L15
 311 0006 FFF7FEFF 		bl	vl6180x_write_byte
 312              	.LVL35:
 123:main.c        ****     vl6180x_write_byte(0x0208, 0x01);
 313              		.loc 1 123 0
 314 000a 0121     		movs	r1, #1
 315 000c 8220     		movs	r0, #130
 316 000e 8000     		lsls	r0, r0, #2
 317 0010 FFF7FEFF 		bl	vl6180x_write_byte
 318              	.LVL36:
 124:main.c        ****     vl6180x_write_byte(0x0096, 0x00);
 319              		.loc 1 124 0
 320 0014 0021     		movs	r1, #0
 321 0016 9620     		movs	r0, #150
 322 0018 FFF7FEFF 		bl	vl6180x_write_byte
 323              	.LVL37:
 125:main.c        ****     vl6180x_write_byte(0x0097, 0xfd);
 324              		.loc 1 125 0
 325 001c FD21     		movs	r1, #253
 326 001e 9720     		movs	r0, #151
 327 0020 FFF7FEFF 		bl	vl6180x_write_byte
 328              	.LVL38:
 126:main.c        ****     vl6180x_write_byte(0x00e3, 0x00);
 329              		.loc 1 126 0
 330 0024 0021     		movs	r1, #0
ARM GAS  C:\Users\12548\AppData\Local\Temp\ccPA1h2Z.s 			page 9


 331 0026 E320     		movs	r0, #227
 332 0028 FFF7FEFF 		bl	vl6180x_write_byte
 333              	.LVL39:
 127:main.c        ****     vl6180x_write_byte(0x00e4, 0x04);
 334              		.loc 1 127 0
 335 002c 0421     		movs	r1, #4
 336 002e E420     		movs	r0, #228
 337 0030 FFF7FEFF 		bl	vl6180x_write_byte
 338              	.LVL40:
 128:main.c        ****     vl6180x_write_byte(0x00e5, 0x02);
 339              		.loc 1 128 0
 340 0034 0221     		movs	r1, #2
 341 0036 E520     		movs	r0, #229
 342 0038 FFF7FEFF 		bl	vl6180x_write_byte
 343              	.LVL41:
 129:main.c        ****     vl6180x_write_byte(0x00e6, 0x01);
 344              		.loc 1 129 0
 345 003c 0121     		movs	r1, #1
 346 003e E620     		movs	r0, #230
 347 0040 FFF7FEFF 		bl	vl6180x_write_byte
 348              	.LVL42:
 130:main.c        ****     vl6180x_write_byte(0x00e7, 0x03);
 349              		.loc 1 130 0
 350 0044 0321     		movs	r1, #3
 351 0046 E720     		movs	r0, #231
 352 0048 FFF7FEFF 		bl	vl6180x_write_byte
 353              	.LVL43:
 131:main.c        ****     vl6180x_write_byte(0x00f5, 0x02);
 354              		.loc 1 131 0
 355 004c 0221     		movs	r1, #2
 356 004e F520     		movs	r0, #245
 357 0050 FFF7FEFF 		bl	vl6180x_write_byte
 358              	.LVL44:
 132:main.c        ****     vl6180x_write_byte(0x00d9, 0x05);
 359              		.loc 1 132 0
 360 0054 0521     		movs	r1, #5
 361 0056 D920     		movs	r0, #217
 362 0058 FFF7FEFF 		bl	vl6180x_write_byte
 363              	.LVL45:
 133:main.c        ****     vl6180x_write_byte(0x00db, 0xce);
 364              		.loc 1 133 0
 365 005c CE21     		movs	r1, #206
 366 005e DB20     		movs	r0, #219
 367 0060 FFF7FEFF 		bl	vl6180x_write_byte
 368              	.LVL46:
 134:main.c        ****     vl6180x_write_byte(0x00dc, 0x03);
 369              		.loc 1 134 0
 370 0064 0321     		movs	r1, #3
 371 0066 DC20     		movs	r0, #220
 372 0068 FFF7FEFF 		bl	vl6180x_write_byte
 373              	.LVL47:
 135:main.c        ****     vl6180x_write_byte(0x00dd, 0xf8);
 374              		.loc 1 135 0
 375 006c F821     		movs	r1, #248
 376 006e DD20     		movs	r0, #221
 377 0070 FFF7FEFF 		bl	vl6180x_write_byte
 378              	.LVL48:
ARM GAS  C:\Users\12548\AppData\Local\Temp\ccPA1h2Z.s 			page 10


 136:main.c        ****     vl6180x_write_byte(0x009f, 0x00);
 379              		.loc 1 136 0
 380 0074 0021     		movs	r1, #0
 381 0076 9F20     		movs	r0, #159
 382 0078 FFF7FEFF 		bl	vl6180x_write_byte
 383              	.LVL49:
 137:main.c        ****     vl6180x_write_byte(0x00a3, 0x3c);
 384              		.loc 1 137 0
 385 007c 3C21     		movs	r1, #60
 386 007e A320     		movs	r0, #163
 387 0080 FFF7FEFF 		bl	vl6180x_write_byte
 388              	.LVL50:
 138:main.c        ****     vl6180x_write_byte(0x00b7, 0x00);
 389              		.loc 1 138 0
 390 0084 0021     		movs	r1, #0
 391 0086 B720     		movs	r0, #183
 392 0088 FFF7FEFF 		bl	vl6180x_write_byte
 393              	.LVL51:
 139:main.c        ****     vl6180x_write_byte(0x00bb, 0x3c);
 394              		.loc 1 139 0
 395 008c 3C21     		movs	r1, #60
 396 008e BB20     		movs	r0, #187
 397 0090 FFF7FEFF 		bl	vl6180x_write_byte
 398              	.LVL52:
 140:main.c        ****     vl6180x_write_byte(0x00b2, 0x09);
 399              		.loc 1 140 0
 400 0094 0921     		movs	r1, #9
 401 0096 B220     		movs	r0, #178
 402 0098 FFF7FEFF 		bl	vl6180x_write_byte
 403              	.LVL53:
 141:main.c        ****     vl6180x_write_byte(0x00ca, 0x09);
 404              		.loc 1 141 0
 405 009c 0921     		movs	r1, #9
 406 009e CA20     		movs	r0, #202
 407 00a0 FFF7FEFF 		bl	vl6180x_write_byte
 408              	.LVL54:
 142:main.c        ****     vl6180x_write_byte(0x0198, 0x01);
 409              		.loc 1 142 0
 410 00a4 0121     		movs	r1, #1
 411 00a6 CC20     		movs	r0, #204
 412 00a8 4000     		lsls	r0, r0, #1
 413 00aa FFF7FEFF 		bl	vl6180x_write_byte
 414              	.LVL55:
 143:main.c        ****     vl6180x_write_byte(0x01b0, 0x17);
 415              		.loc 1 143 0
 416 00ae 1721     		movs	r1, #23
 417 00b0 D820     		movs	r0, #216
 418 00b2 4000     		lsls	r0, r0, #1
 419 00b4 FFF7FEFF 		bl	vl6180x_write_byte
 420              	.LVL56:
 144:main.c        ****     vl6180x_write_byte(0x01ad, 0x00);
 421              		.loc 1 144 0
 422 00b8 0021     		movs	r1, #0
 423 00ba AE20     		movs	r0, #174
 424 00bc FF30     		adds	r0, r0, #255
 425 00be FFF7FEFF 		bl	vl6180x_write_byte
 426              	.LVL57:
ARM GAS  C:\Users\12548\AppData\Local\Temp\ccPA1h2Z.s 			page 11


 145:main.c        ****     vl6180x_write_byte(0x00ff, 0x05);
 427              		.loc 1 145 0
 428 00c2 0521     		movs	r1, #5
 429 00c4 FF20     		movs	r0, #255
 430 00c6 FFF7FEFF 		bl	vl6180x_write_byte
 431              	.LVL58:
 146:main.c        ****     vl6180x_write_byte(0x0100, 0x05);
 432              		.loc 1 146 0
 433 00ca 0521     		movs	r1, #5
 434 00cc 8020     		movs	r0, #128
 435 00ce 4000     		lsls	r0, r0, #1
 436 00d0 FFF7FEFF 		bl	vl6180x_write_byte
 437              	.LVL59:
 147:main.c        ****     vl6180x_write_byte(0x0199, 0x05);
 438              		.loc 1 147 0
 439 00d4 0521     		movs	r1, #5
 440 00d6 9A20     		movs	r0, #154
 441 00d8 FF30     		adds	r0, r0, #255
 442 00da FFF7FEFF 		bl	vl6180x_write_byte
 443              	.LVL60:
 148:main.c        ****     vl6180x_write_byte(0x01a6, 0x1b);
 444              		.loc 1 148 0
 445 00de 1B21     		movs	r1, #27
 446 00e0 D320     		movs	r0, #211
 447 00e2 4000     		lsls	r0, r0, #1
 448 00e4 FFF7FEFF 		bl	vl6180x_write_byte
 449              	.LVL61:
 149:main.c        ****     vl6180x_write_byte(0x01ac, 0x3e);
 450              		.loc 1 149 0
 451 00e8 3E21     		movs	r1, #62
 452 00ea D620     		movs	r0, #214
 453 00ec 4000     		lsls	r0, r0, #1
 454 00ee FFF7FEFF 		bl	vl6180x_write_byte
 455              	.LVL62:
 150:main.c        ****     vl6180x_write_byte(0x01a7, 0x1f);
 456              		.loc 1 150 0
 457 00f2 1F21     		movs	r1, #31
 458 00f4 A820     		movs	r0, #168
 459 00f6 FF30     		adds	r0, r0, #255
 460 00f8 FFF7FEFF 		bl	vl6180x_write_byte
 461              	.LVL63:
 151:main.c        ****     vl6180x_write_byte(0x0030, 0x00);
 462              		.loc 1 151 0
 463 00fc 0021     		movs	r1, #0
 464 00fe 3020     		movs	r0, #48
 465 0100 FFF7FEFF 		bl	vl6180x_write_byte
 466              	.LVL64:
 152:main.c        ****     
 153:main.c        ****     // 配置测距参数
 154:main.c        ****     vl6180x_write_byte(VL6180X_SYSRANGE_MAX_CONVERGENCE_TIME, 0x32); // 最大收敛时间50ms
 467              		.loc 1 154 0
 468 0104 3221     		movs	r1, #50
 469 0106 1C20     		movs	r0, #28
 470 0108 FFF7FEFF 		bl	vl6180x_write_byte
 471              	.LVL65:
 155:main.c        ****     vl6180x_write_byte(VL6180X_SYSRANGE_RANGE_CHECK_ENABLES, 0x10 | 0x01); // 使能范围检查
 472              		.loc 1 155 0
ARM GAS  C:\Users\12548\AppData\Local\Temp\ccPA1h2Z.s 			page 12


 473 010c 1121     		movs	r1, #17
 474 010e 2D20     		movs	r0, #45
 475 0110 FFF7FEFF 		bl	vl6180x_write_byte
 476              	.LVL66:
 156:main.c        ****     vl6180x_write_byte(0x002e, 0x01); // 提前收敛估计
 477              		.loc 1 156 0
 478 0114 0121     		movs	r1, #1
 479 0116 2E20     		movs	r0, #46
 480 0118 FFF7FEFF 		bl	vl6180x_write_byte
 481              	.LVL67:
 157:main.c        ****     
 158:main.c        ****     // 配置中断（可选）
 159:main.c        ****     vl6180x_write_byte(VL6180X_SYSTEM_MODE_GPIO1, 0x10); // GPIO1中断使能
 482              		.loc 1 159 0
 483 011c 1021     		movs	r1, #16
 484 011e 1120     		movs	r0, #17
 485 0120 FFF7FEFF 		bl	vl6180x_write_byte
 486              	.LVL68:
 160:main.c        ****     vl6180x_write_byte(VL6180X_SYSTEM_INTERRUPT_CONFIG_GPIO, 0x24); // 新样本准备中断
 487              		.loc 1 160 0
 488 0124 2421     		movs	r1, #36
 489 0126 1420     		movs	r0, #20
 490 0128 FFF7FEFF 		bl	vl6180x_write_byte
 491              	.LVL69:
 161:main.c        **** }
 492              		.loc 1 161 0
 493              		@ sp needed
 494 012c 10BD     		pop	{r4, pc}
 495              	.L16:
 496 012e C046     		.align	2
 497              	.L15:
 498 0130 07020000 		.word	519
 499              		.cfi_endproc
 500              	.LFE39:
 501              		.size	vl6180x_configure_default, .-vl6180x_configure_default
 502              		.section	.text.vl6180x_init,"ax",%progbits
 503              		.align	2
 504              		.global	vl6180x_init
 505              		.code	16
 506              		.thumb_func
 507              		.type	vl6180x_init, %function
 508              	vl6180x_init:
 509              	.LFB40:
 162:main.c        **** 
 163:main.c        **** // VL6180X初始化
 164:main.c        **** uint8 vl6180x_init(void)
 165:main.c        **** {
 510              		.loc 1 165 0
 511              		.cfi_startproc
 512              		@ args = 0, pretend = 0, frame = 0
 513              		@ frame_needed = 0, uses_anonymous_args = 0
 514 0000 F8B5     		push	{r3, r4, r5, r6, r7, lr}
 515              		.cfi_def_cfa_offset 24
 516              		.cfi_offset 3, -24
 517              		.cfi_offset 4, -20
 518              		.cfi_offset 5, -16
 519              		.cfi_offset 6, -12
ARM GAS  C:\Users\12548\AppData\Local\Temp\ccPA1h2Z.s 			page 13


 520              		.cfi_offset 7, -8
 521              		.cfi_offset 14, -4
 166:main.c        ****     uint8 model_id;
 167:main.c        ****     uint8 fresh_out_of_reset;
 168:main.c        ****     
 169:main.c        ****     uart_print("\r\n=== VL6180X Initialization ===\r\n");
 522              		.loc 1 169 0
 523 0002 2F48     		ldr	r0, .L22
 524 0004 FFF7FEFF 		bl	uart_print
 525              	.LVL70:
 170:main.c        ****     
 171:main.c        ****     // 读取并验证设备ID
 172:main.c        ****     model_id = vl6180x_read_byte(VL6180X_IDENTIFICATION_MODEL_ID);
 526              		.loc 1 172 0
 527 0008 0020     		movs	r0, #0
 528 000a FFF7FEFF 		bl	vl6180x_read_byte
 529              	.LVL71:
 530 000e 0400     		movs	r4, r0
 531              	.LVL72:
 173:main.c        ****     uart_print("Model ID: ");
 532              		.loc 1 173 0
 533 0010 2C48     		ldr	r0, .L22+4
 534 0012 FFF7FEFF 		bl	uart_print
 535              	.LVL73:
 174:main.c        ****     uart_print_hex(model_id);
 536              		.loc 1 174 0
 537 0016 2000     		movs	r0, r4
 538 0018 FFF7FEFF 		bl	uart_print_hex
 539              	.LVL74:
 175:main.c        ****     
 176:main.c        ****     if(model_id != 0xB4) {
 540              		.loc 1 176 0
 541 001c B42C     		cmp	r4, #180
 542 001e 04D0     		beq	.L18
 177:main.c        ****         uart_print(" - ERROR: Wrong ID!\r\n");
 543              		.loc 1 177 0
 544 0020 2948     		ldr	r0, .L22+8
 545 0022 FFF7FEFF 		bl	uart_print
 546              	.LVL75:
 178:main.c        ****         return 0;
 547              		.loc 1 178 0
 548 0026 0020     		movs	r0, #0
 549 0028 48E0     		b	.L19
 550              	.L18:
 179:main.c        ****     }
 180:main.c        ****     uart_print(" - OK\r\n");
 551              		.loc 1 180 0
 552 002a 2848     		ldr	r0, .L22+12
 553 002c FFF7FEFF 		bl	uart_print
 554              	.LVL76:
 181:main.c        ****     
 182:main.c        ****     // 读取版本信息
 183:main.c        ****     uint8 model_rev = vl6180x_read_byte(VL6180X_IDENTIFICATION_MODEL_REV);
 555              		.loc 1 183 0
 556 0030 0120     		movs	r0, #1
 557 0032 FFF7FEFF 		bl	vl6180x_read_byte
 558              	.LVL77:
ARM GAS  C:\Users\12548\AppData\Local\Temp\ccPA1h2Z.s 			page 14


 559 0036 0500     		movs	r5, r0
 560              	.LVL78:
 184:main.c        ****     uint8 module_rev = vl6180x_read_byte(VL6180X_IDENTIFICATION_MODULE_REV);
 561              		.loc 1 184 0
 562 0038 0220     		movs	r0, #2
 563 003a FFF7FEFF 		bl	vl6180x_read_byte
 564              	.LVL79:
 565 003e 0400     		movs	r4, r0
 566              	.LVL80:
 185:main.c        ****     uart_print("Model Rev: ");
 567              		.loc 1 185 0
 568 0040 2348     		ldr	r0, .L22+16
 569 0042 FFF7FEFF 		bl	uart_print
 570              	.LVL81:
 186:main.c        ****     uart_print_number(model_rev >> 4);
 571              		.loc 1 186 0
 572 0046 2809     		lsrs	r0, r5, #4
 573 0048 C0B2     		uxtb	r0, r0
 574 004a FFF7FEFF 		bl	uart_print_number
 575              	.LVL82:
 187:main.c        ****     uart_print(".");
 576              		.loc 1 187 0
 577 004e 214E     		ldr	r6, .L22+20
 578 0050 3000     		movs	r0, r6
 579 0052 FFF7FEFF 		bl	uart_print
 580              	.LVL83:
 188:main.c        ****     uart_print_number(model_rev & 0x0F);
 581              		.loc 1 188 0
 582 0056 0F27     		movs	r7, #15
 583 0058 2800     		movs	r0, r5
 584 005a 3840     		ands	r0, r7
 585 005c FFF7FEFF 		bl	uart_print_number
 586              	.LVL84:
 189:main.c        ****     uart_print(", Module Rev: ");
 587              		.loc 1 189 0
 588 0060 1D48     		ldr	r0, .L22+24
 589 0062 FFF7FEFF 		bl	uart_print
 590              	.LVL85:
 190:main.c        ****     uart_print_number(module_rev >> 4);
 591              		.loc 1 190 0
 592 0066 2009     		lsrs	r0, r4, #4
 593 0068 C0B2     		uxtb	r0, r0
 594 006a FFF7FEFF 		bl	uart_print_number
 595              	.LVL86:
 191:main.c        ****     uart_print(".");
 596              		.loc 1 191 0
 597 006e 3000     		movs	r0, r6
 598 0070 FFF7FEFF 		bl	uart_print
 599              	.LVL87:
 192:main.c        ****     uart_print_number(module_rev & 0x0F);
 600              		.loc 1 192 0
 601 0074 3800     		movs	r0, r7
 602 0076 2040     		ands	r0, r4
 603 0078 FFF7FEFF 		bl	uart_print_number
 604              	.LVL88:
 193:main.c        ****     uart_print("\r\n");
 605              		.loc 1 193 0
ARM GAS  C:\Users\12548\AppData\Local\Temp\ccPA1h2Z.s 			page 15


 606 007c 1748     		ldr	r0, .L22+28
 607 007e FFF7FEFF 		bl	uart_print
 608              	.LVL89:
 194:main.c        ****     
 195:main.c        ****     // 检查是否需要初始化
 196:main.c        ****     fresh_out_of_reset = vl6180x_read_byte(VL6180X_SYSTEM_FRESH_OUT_OF_RESET);
 609              		.loc 1 196 0
 610 0082 1620     		movs	r0, #22
 611 0084 FFF7FEFF 		bl	vl6180x_read_byte
 612              	.LVL90:
 197:main.c        ****     if(fresh_out_of_reset == 1) {
 613              		.loc 1 197 0
 614 0088 0128     		cmp	r0, #1
 615 008a 0CD1     		bne	.L20
 198:main.c        ****         uart_print("Fresh boot detected, applying configuration...\r\n");
 616              		.loc 1 198 0
 617 008c 1448     		ldr	r0, .L22+32
 618              	.LVL91:
 619 008e FFF7FEFF 		bl	uart_print
 620              	.LVL92:
 199:main.c        ****         
 200:main.c        ****         // 应用默认配置
 201:main.c        ****         vl6180x_configure_default();
 621              		.loc 1 201 0
 622 0092 FFF7FEFF 		bl	vl6180x_configure_default
 623              	.LVL93:
 202:main.c        ****         
 203:main.c        ****         // 清除复位标志
 204:main.c        ****         vl6180x_write_byte(VL6180X_SYSTEM_FRESH_OUT_OF_RESET, 0x00);
 624              		.loc 1 204 0
 625 0096 0021     		movs	r1, #0
 626 0098 1620     		movs	r0, #22
 627 009a FFF7FEFF 		bl	vl6180x_write_byte
 628              	.LVL94:
 205:main.c        ****         
 206:main.c        ****         uart_print("Configuration complete\r\n");
 629              		.loc 1 206 0
 630 009e 1148     		ldr	r0, .L22+36
 631 00a0 FFF7FEFF 		bl	uart_print
 632              	.LVL95:
 633 00a4 02E0     		b	.L21
 634              	.LVL96:
 635              	.L20:
 207:main.c        ****     }
 208:main.c        ****     else {
 209:main.c        ****         uart_print("Already configured\r\n");
 636              		.loc 1 209 0
 637 00a6 1048     		ldr	r0, .L22+40
 638              	.LVL97:
 639 00a8 FFF7FEFF 		bl	uart_print
 640              	.LVL98:
 641              	.L21:
 210:main.c        ****     }
 211:main.c        ****     
 212:main.c        ****     // 设置默认测量模式（单次测量）
 213:main.c        ****     vl6180x_write_byte(VL6180X_SYSRANGE_START, 0x00);
 642              		.loc 1 213 0
ARM GAS  C:\Users\12548\AppData\Local\Temp\ccPA1h2Z.s 			page 16


 643 00ac 0021     		movs	r1, #0
 644 00ae 1820     		movs	r0, #24
 645 00b0 FFF7FEFF 		bl	vl6180x_write_byte
 646              	.LVL99:
 214:main.c        ****     
 215:main.c        ****     uart_print("✓ Initialization successful\r\n");
 647              		.loc 1 215 0
 648 00b4 0D48     		ldr	r0, .L22+44
 649 00b6 FFF7FEFF 		bl	uart_print
 650              	.LVL100:
 216:main.c        ****     return 1;
 651              		.loc 1 216 0
 652 00ba 0120     		movs	r0, #1
 653              	.LVL101:
 654              	.L19:
 217:main.c        **** }
 655              		.loc 1 217 0
 656              		@ sp needed
 657 00bc F8BD     		pop	{r3, r4, r5, r6, r7, pc}
 658              	.L23:
 659 00be C046     		.align	2
 660              	.L22:
 661 00c0 0C000000 		.word	.LC4
 662 00c4 30000000 		.word	.LC6
 663 00c8 3C000000 		.word	.LC8
 664 00cc 54000000 		.word	.LC10
 665 00d0 5C000000 		.word	.LC12
 666 00d4 68000000 		.word	.LC14
 667 00d8 6C000000 		.word	.LC16
 668 00dc 7C000000 		.word	.LC18
 669 00e0 80000000 		.word	.LC20
 670 00e4 B4000000 		.word	.LC22
 671 00e8 D0000000 		.word	.LC24
 672 00ec E8000000 		.word	.LC26
 673              		.cfi_endproc
 674              	.LFE40:
 675              		.size	vl6180x_init, .-vl6180x_init
 676              		.section	.text.display_status_code,"ax",%progbits
 677              		.align	2
 678              		.global	display_status_code
 679              		.code	16
 680              		.thumb_func
 681              		.type	display_status_code, %function
 682              	display_status_code:
 683              	.LFB41:
 218:main.c        **** 
 219:main.c        **** // 显示状态码含义
 220:main.c        **** void display_status_code(uint8 status)
 221:main.c        **** {
 684              		.loc 1 221 0
 685              		.cfi_startproc
 686              		@ args = 0, pretend = 0, frame = 0
 687              		@ frame_needed = 0, uses_anonymous_args = 0
 688              	.LVL102:
 689 0000 10B5     		push	{r4, lr}
 690              		.cfi_def_cfa_offset 8
 691              		.cfi_offset 4, -8
ARM GAS  C:\Users\12548\AppData\Local\Temp\ccPA1h2Z.s 			page 17


 692              		.cfi_offset 14, -4
 222:main.c        ****     uint8 error_code = (status >> 4) & 0x0F;
 693              		.loc 1 222 0
 694 0002 0009     		lsrs	r0, r0, #4
 695              	.LVL103:
 223:main.c        ****     
 224:main.c        ****     switch(error_code) {
 696              		.loc 1 224 0
 697 0004 8000     		lsls	r0, r0, #2
 698              	.LVL104:
 699 0006 1F4B     		ldr	r3, .L42
 700 0008 1B58     		ldr	r3, [r3, r0]
 701 000a 9F46     		mov	pc, r3
 702              		.section	.rodata
 703              		.align	2
 704              	.L27:
 705 0000 0C000000 		.word	.L26
 706 0004 14000000 		.word	.L28
 707 0008 1C000000 		.word	.L29
 708 000c 24000000 		.word	.L30
 709 0010 2C000000 		.word	.L31
 710 0014 34000000 		.word	.L32
 711 0018 3C000000 		.word	.L33
 712 001c 44000000 		.word	.L34
 713 0020 4C000000 		.word	.L35
 714 0024 7C000000 		.word	.L25
 715 0028 7C000000 		.word	.L25
 716 002c 54000000 		.word	.L36
 717 0030 5C000000 		.word	.L37
 718 0034 64000000 		.word	.L38
 719 0038 6C000000 		.word	.L39
 720 003c 74000000 		.word	.L40
 721              		.section	.text.display_status_code
 722              	.L26:
 225:main.c        ****         case 0:  uart_print("[No error]"); break;
 723              		.loc 1 225 0
 724 000c 1E48     		ldr	r0, .L42+4
 725 000e FFF7FEFF 		bl	uart_print
 726              	.LVL105:
 727 0012 36E0     		b	.L24
 728              	.L28:
 226:main.c        ****         case 1:  uart_print("[VCSEL continuity test]"); break;
 729              		.loc 1 226 0
 730 0014 1D48     		ldr	r0, .L42+8
 731 0016 FFF7FEFF 		bl	uart_print
 732              	.LVL106:
 733 001a 32E0     		b	.L24
 734              	.L29:
 227:main.c        ****         case 2:  uart_print("[VCSEL watchdog test]"); break;
 735              		.loc 1 227 0
 736 001c 1C48     		ldr	r0, .L42+12
 737 001e FFF7FEFF 		bl	uart_print
 738              	.LVL107:
 739 0022 2EE0     		b	.L24
 740              	.L30:
 228:main.c        ****         case 3:  uart_print("[VCSEL watchdog]"); break;
 741              		.loc 1 228 0
ARM GAS  C:\Users\12548\AppData\Local\Temp\ccPA1h2Z.s 			page 18


 742 0024 1B48     		ldr	r0, .L42+16
 743 0026 FFF7FEFF 		bl	uart_print
 744              	.LVL108:
 745 002a 2AE0     		b	.L24
 746              	.L31:
 229:main.c        ****         case 4:  uart_print("[PLL1 lock]"); break;
 747              		.loc 1 229 0
 748 002c 1A48     		ldr	r0, .L42+20
 749 002e FFF7FEFF 		bl	uart_print
 750              	.LVL109:
 751 0032 26E0     		b	.L24
 752              	.L32:
 230:main.c        ****         case 5:  uart_print("[PLL2 lock]"); break;
 753              		.loc 1 230 0
 754 0034 1948     		ldr	r0, .L42+24
 755 0036 FFF7FEFF 		bl	uart_print
 756              	.LVL110:
 757 003a 22E0     		b	.L24
 758              	.L33:
 231:main.c        ****         case 6:  uart_print("[Early convergence estimate]"); break;
 759              		.loc 1 231 0
 760 003c 1848     		ldr	r0, .L42+28
 761 003e FFF7FEFF 		bl	uart_print
 762              	.LVL111:
 763 0042 1EE0     		b	.L24
 764              	.L34:
 232:main.c        ****         case 7:  uart_print("[Max convergence]"); break;
 765              		.loc 1 232 0
 766 0044 1748     		ldr	r0, .L42+32
 767 0046 FFF7FEFF 		bl	uart_print
 768              	.LVL112:
 769 004a 1AE0     		b	.L24
 770              	.L35:
 233:main.c        ****         case 8:  uart_print("[No target ignore]"); break;
 771              		.loc 1 233 0
 772 004c 1648     		ldr	r0, .L42+36
 773 004e FFF7FEFF 		bl	uart_print
 774              	.LVL113:
 775 0052 16E0     		b	.L24
 776              	.L36:
 234:main.c        ****         case 11: uart_print("[Max SNR]"); break;
 777              		.loc 1 234 0
 778 0054 1548     		ldr	r0, .L42+40
 779 0056 FFF7FEFF 		bl	uart_print
 780              	.LVL114:
 781 005a 12E0     		b	.L24
 782              	.L37:
 235:main.c        ****         case 12: uart_print("[Raw ranging algo underflow]"); break;
 783              		.loc 1 235 0
 784 005c 1448     		ldr	r0, .L42+44
 785 005e FFF7FEFF 		bl	uart_print
 786              	.LVL115:
 787 0062 0EE0     		b	.L24
 788              	.L38:
 236:main.c        ****         case 13: uart_print("[Raw ranging algo overflow]"); break;
 789              		.loc 1 236 0
 790 0064 1348     		ldr	r0, .L42+48
ARM GAS  C:\Users\12548\AppData\Local\Temp\ccPA1h2Z.s 			page 19


 791 0066 FFF7FEFF 		bl	uart_print
 792              	.LVL116:
 793 006a 0AE0     		b	.L24
 794              	.L39:
 237:main.c        ****         case 14: uart_print("[Ranging algo underflow]"); break;
 795              		.loc 1 237 0
 796 006c 1248     		ldr	r0, .L42+52
 797 006e FFF7FEFF 		bl	uart_print
 798              	.LVL117:
 799 0072 06E0     		b	.L24
 800              	.L40:
 238:main.c        ****         case 15: uart_print("[Ranging algo overflow]"); break;
 801              		.loc 1 238 0
 802 0074 1148     		ldr	r0, .L42+56
 803 0076 FFF7FEFF 		bl	uart_print
 804              	.LVL118:
 805 007a 02E0     		b	.L24
 806              	.L25:
 239:main.c        ****         default: uart_print("[Unknown error]"); break;
 807              		.loc 1 239 0
 808 007c 1048     		ldr	r0, .L42+60
 809 007e FFF7FEFF 		bl	uart_print
 810              	.LVL119:
 811              	.L24:
 240:main.c        ****     }
 241:main.c        **** }
 812              		.loc 1 241 0
 813              		@ sp needed
 814 0082 10BD     		pop	{r4, pc}
 815              	.L43:
 816              		.align	2
 817              	.L42:
 818 0084 00000000 		.word	.L27
 819 0088 08010000 		.word	.LC29
 820 008c 14010000 		.word	.LC31
 821 0090 2C010000 		.word	.LC33
 822 0094 44010000 		.word	.LC35
 823 0098 58010000 		.word	.LC37
 824 009c 64010000 		.word	.LC39
 825 00a0 70010000 		.word	.LC41
 826 00a4 90010000 		.word	.LC43
 827 00a8 A4010000 		.word	.LC45
 828 00ac B8010000 		.word	.LC47
 829 00b0 C4010000 		.word	.LC49
 830 00b4 E4010000 		.word	.LC51
 831 00b8 00020000 		.word	.LC53
 832 00bc 1C020000 		.word	.LC55
 833 00c0 34020000 		.word	.LC57
 834              		.cfi_endproc
 835              	.LFE41:
 836              		.size	display_status_code, .-display_status_code
 837              		.section	.text.vl6180x_read_distance,"ax",%progbits
 838              		.align	2
 839              		.global	vl6180x_read_distance
 840              		.code	16
 841              		.thumb_func
 842              		.type	vl6180x_read_distance, %function
ARM GAS  C:\Users\12548\AppData\Local\Temp\ccPA1h2Z.s 			page 20


 843              	vl6180x_read_distance:
 844              	.LFB42:
 242:main.c        **** 
 243:main.c        **** // 读取距离
 244:main.c        **** uint8 vl6180x_read_distance(void)
 245:main.c        **** {
 845              		.loc 1 245 0
 846              		.cfi_startproc
 847              		@ args = 0, pretend = 0, frame = 0
 848              		@ frame_needed = 0, uses_anonymous_args = 0
 849 0000 70B5     		push	{r4, r5, r6, lr}
 850              		.cfi_def_cfa_offset 16
 851              		.cfi_offset 4, -16
 852              		.cfi_offset 5, -12
 853              		.cfi_offset 6, -8
 854              		.cfi_offset 14, -4
 855              	.LVL120:
 246:main.c        ****     uint8 status;
 247:main.c        ****     uint8 distance;
 248:main.c        ****     uint16 timeout = 0;
 249:main.c        ****     
 250:main.c        ****     // 清除中断
 251:main.c        ****     vl6180x_write_byte(VL6180X_SYSTEM_INTERRUPT_CLEAR, 0x07);
 856              		.loc 1 251 0
 857 0002 0721     		movs	r1, #7
 858 0004 1520     		movs	r0, #21
 859 0006 FFF7FEFF 		bl	vl6180x_write_byte
 860              	.LVL121:
 252:main.c        ****     
 253:main.c        ****     // 启动单次测量
 254:main.c        ****     vl6180x_write_byte(VL6180X_SYSRANGE_START, 0x01);
 861              		.loc 1 254 0
 862 000a 0121     		movs	r1, #1
 863 000c 1820     		movs	r0, #24
 864 000e FFF7FEFF 		bl	vl6180x_write_byte
 865              	.LVL122:
 248:main.c        ****     
 866              		.loc 1 248 0
 867 0012 0024     		movs	r4, #0
 868              	.LVL123:
 869              	.L47:
 255:main.c        ****     
 256:main.c        ****     // 等待测量完成
 257:main.c        ****     do {
 258:main.c        ****         CyDelay(1);
 870              		.loc 1 258 0
 871 0014 0120     		movs	r0, #1
 872 0016 FFF7FEFF 		bl	CyDelay
 873              	.LVL124:
 259:main.c        ****         status = vl6180x_read_byte(VL6180X_RESULT_INTERRUPT_STATUS_GPIO);
 874              		.loc 1 259 0
 875 001a 4F20     		movs	r0, #79
 876 001c FFF7FEFF 		bl	vl6180x_read_byte
 877              	.LVL125:
 260:main.c        ****         timeout++;
 878              		.loc 1 260 0
 879 0020 0134     		adds	r4, r4, #1
ARM GAS  C:\Users\12548\AppData\Local\Temp\ccPA1h2Z.s 			page 21


 880              	.LVL126:
 881 0022 A4B2     		uxth	r4, r4
 882              	.LVL127:
 261:main.c        ****         if(timeout > 100) {  // 100ms超时
 883              		.loc 1 261 0
 884 0024 642C     		cmp	r4, #100
 885 0026 04D9     		bls	.L45
 262:main.c        ****             uart_print("Timeout! ");
 886              		.loc 1 262 0
 887 0028 1348     		ldr	r0, .L50
 888              	.LVL128:
 889 002a FFF7FEFF 		bl	uart_print
 890              	.LVL129:
 263:main.c        ****             return 0xFF;
 891              		.loc 1 263 0
 892 002e FF20     		movs	r0, #255
 893 0030 20E0     		b	.L46
 894              	.LVL130:
 895              	.L45:
 264:main.c        ****         }
 265:main.c        ****     } while((status & 0x04) == 0);
 896              		.loc 1 265 0
 897 0032 4307     		lsls	r3, r0, #29
 898 0034 EED5     		bpl	.L47
 266:main.c        ****     
 267:main.c        ****     // 读取距离值
 268:main.c        ****     distance = vl6180x_read_byte(VL6180X_RESULT_RANGE_VAL);
 899              		.loc 1 268 0
 900 0036 6220     		movs	r0, #98
 901              	.LVL131:
 902 0038 FFF7FEFF 		bl	vl6180x_read_byte
 903              	.LVL132:
 904 003c 0500     		movs	r5, r0
 905              	.LVL133:
 269:main.c        ****     
 270:main.c        ****     // 读取状态
 271:main.c        ****     status = vl6180x_read_byte(VL6180X_RESULT_RANGE_STATUS);
 906              		.loc 1 271 0
 907 003e 4D20     		movs	r0, #77
 908 0040 FFF7FEFF 		bl	vl6180x_read_byte
 909              	.LVL134:
 272:main.c        ****     uint8 error_code = (status >> 4) & 0x0F;
 910              		.loc 1 272 0
 911 0044 0009     		lsrs	r0, r0, #4
 912              	.LVL135:
 913 0046 C4B2     		uxtb	r4, r0
 914              	.LVL136:
 273:main.c        ****     
 274:main.c        ****     // 清除中断
 275:main.c        ****     vl6180x_write_byte(VL6180X_SYSTEM_INTERRUPT_CLEAR, 0x07);
 915              		.loc 1 275 0
 916 0048 0721     		movs	r1, #7
 917 004a 1520     		movs	r0, #21
 918 004c FFF7FEFF 		bl	vl6180x_write_byte
 919              	.LVL137:
 276:main.c        ****     
 277:main.c        ****     // 检查错误
ARM GAS  C:\Users\12548\AppData\Local\Temp\ccPA1h2Z.s 			page 22


 278:main.c        ****     if(error_code != 0) {
 920              		.loc 1 278 0
 921 0050 002C     		cmp	r4, #0
 922 0052 0CD0     		beq	.L48
 279:main.c        ****         if(error_code == 11) {
 923              		.loc 1 279 0
 924 0054 0B2C     		cmp	r4, #11
 925 0056 0CD0     		beq	.L49
 280:main.c        ****             // 没有目标 - 这是正常的
 281:main.c        ****             return 0xFF;
 282:main.c        ****         }
 283:main.c        ****         // 其他错误
 284:main.c        ****         uart_print("Error ");
 926              		.loc 1 284 0
 927 0058 0848     		ldr	r0, .L50+4
 928 005a FFF7FEFF 		bl	uart_print
 929              	.LVL138:
 285:main.c        ****         uart_print_number(error_code);
 930              		.loc 1 285 0
 931 005e A0B2     		uxth	r0, r4
 932 0060 FFF7FEFF 		bl	uart_print_number
 933              	.LVL139:
 286:main.c        ****         uart_print(" ");
 934              		.loc 1 286 0
 935 0064 0648     		ldr	r0, .L50+8
 936 0066 FFF7FEFF 		bl	uart_print
 937              	.LVL140:
 287:main.c        ****         return 0xFF;
 938              		.loc 1 287 0
 939 006a FF20     		movs	r0, #255
 940 006c 02E0     		b	.L46
 941              	.L48:
 288:main.c        ****     }
 289:main.c        ****     
 290:main.c        ****     return distance;
 942              		.loc 1 290 0
 943 006e 2800     		movs	r0, r5
 944 0070 00E0     		b	.L46
 945              	.L49:
 281:main.c        ****         }
 946              		.loc 1 281 0
 947 0072 FF20     		movs	r0, #255
 948              	.LVL141:
 949              	.L46:
 291:main.c        **** }
 950              		.loc 1 291 0
 951              		@ sp needed
 952 0074 70BD     		pop	{r4, r5, r6, pc}
 953              	.L51:
 954 0076 C046     		.align	2
 955              	.L50:
 956 0078 44020000 		.word	.LC59
 957 007c 50020000 		.word	.LC61
 958 0080 58020000 		.word	.LC63
 959              		.cfi_endproc
 960              	.LFE42:
 961              		.size	vl6180x_read_distance, .-vl6180x_read_distance
ARM GAS  C:\Users\12548\AppData\Local\Temp\ccPA1h2Z.s 			page 23


 962              		.global	__aeabi_uidivmod
 963              		.global	__aeabi_uidiv
 964              		.section	.text.main,"ax",%progbits
 965              		.align	2
 966              		.global	main
 967              		.code	16
 968              		.thumb_func
 969              		.type	main, %function
 970              	main:
 971              	.LFB43:
 292:main.c        **** 
 293:main.c        **** // 主函数
 294:main.c        **** int main(void)
 295:main.c        **** {
 972              		.loc 1 295 0
 973              		.cfi_startproc
 974              		@ args = 0, pretend = 0, frame = 0
 975              		@ frame_needed = 0, uses_anonymous_args = 0
 976 0000 F8B5     		push	{r3, r4, r5, r6, r7, lr}
 977              		.cfi_def_cfa_offset 24
 978              		.cfi_offset 3, -24
 979              		.cfi_offset 4, -20
 980              		.cfi_offset 5, -16
 981              		.cfi_offset 6, -12
 982              		.cfi_offset 7, -8
 983              		.cfi_offset 14, -4
 984              	.LVL142:
 296:main.c        ****     uint8 distance;
 297:main.c        ****     uint16 measurement_count = 0;
 298:main.c        ****     uint8 continuous_errors = 0;
 299:main.c        ****     
 300:main.c        ****     CyGlobalIntEnable;
 985              		.loc 1 300 0
 986              		.syntax divided
 987              	@ 300 "main.c" 1
 988 0002 62B6     		CPSIE   i
 989              	@ 0 "" 2
 301:main.c        ****     
 302:main.c        ****     // 启动外设
 303:main.c        ****     UART_Start();
 990              		.loc 1 303 0
 991              		.thumb
 992              		.syntax unified
 993 0004 FFF7FEFF 		bl	UART_Start
 994              	.LVL143:
 304:main.c        ****     I2C_Distance_Start();
 995              		.loc 1 304 0
 996 0008 FFF7FEFF 		bl	I2C_Distance_Start
 997              	.LVL144:
 305:main.c        ****     CyDelay(100);
 998              		.loc 1 305 0
 999 000c 6420     		movs	r0, #100
 1000 000e FFF7FEFF 		bl	CyDelay
 1001              	.LVL145:
 306:main.c        ****     
 307:main.c        ****     // 启动信息
 308:main.c        ****     uart_print("\r\n\r\n");
ARM GAS  C:\Users\12548\AppData\Local\Temp\ccPA1h2Z.s 			page 24


 1002              		.loc 1 308 0
 1003 0012 5248     		ldr	r0, .L70
 1004 0014 FFF7FEFF 		bl	uart_print
 1005              	.LVL146:
 309:main.c        ****     uart_print("=====================================\r\n");
 1006              		.loc 1 309 0
 1007 0018 514C     		ldr	r4, .L70+4
 1008 001a 2000     		movs	r0, r4
 1009 001c FFF7FEFF 		bl	uart_print
 1010              	.LVL147:
 310:main.c        ****     uart_print("  VL6180X Distance Sensor Complete  \r\n");
 1011              		.loc 1 310 0
 1012 0020 5048     		ldr	r0, .L70+8
 1013 0022 FFF7FEFF 		bl	uart_print
 1014              	.LVL148:
 311:main.c        ****     uart_print("=====================================\r\n");
 1015              		.loc 1 311 0
 1016 0026 2000     		movs	r0, r4
 1017 0028 FFF7FEFF 		bl	uart_print
 1018              	.LVL149:
 312:main.c        ****     
 313:main.c        ****     // 初始化VL6180X
 314:main.c        ****     if(!vl6180x_init()) {
 1019              		.loc 1 314 0
 1020 002c FFF7FEFF 		bl	vl6180x_init
 1021              	.LVL150:
 1022 0030 0028     		cmp	r0, #0
 1023 0032 0AD1     		bne	.L53
 315:main.c        ****         uart_print("\r\n✗ Initialization failed!\r\n");
 1024              		.loc 1 315 0
 1025 0034 4C48     		ldr	r0, .L70+12
 1026 0036 FFF7FEFF 		bl	uart_print
 1027              	.LVL151:
 316:main.c        ****         uart_print("System halted.\r\n");
 1028              		.loc 1 316 0
 1029 003a 4C48     		ldr	r0, .L70+16
 1030 003c FFF7FEFF 		bl	uart_print
 1031              	.LVL152:
 1032              	.L54:
 317:main.c        ****         while(1) {
 318:main.c        ****             CyDelay(1000);
 1033              		.loc 1 318 0 discriminator 1
 1034 0040 FA20     		movs	r0, #250
 1035 0042 8000     		lsls	r0, r0, #2
 1036 0044 FFF7FEFF 		bl	CyDelay
 1037              	.LVL153:
 1038 0048 FAE7     		b	.L54
 1039              	.L53:
 319:main.c        ****         }
 320:main.c        ****     }
 321:main.c        ****     
 322:main.c        ****     uart_print("\r\n=== Starting Distance Measurements ===\r\n");
 1040              		.loc 1 322 0
 1041 004a 4948     		ldr	r0, .L70+20
 1042 004c FFF7FEFF 		bl	uart_print
 1043              	.LVL154:
 323:main.c        ****     uart_print("Range: 0-200mm, Updates every 500ms\r\n\r\n");
ARM GAS  C:\Users\12548\AppData\Local\Temp\ccPA1h2Z.s 			page 25


 1044              		.loc 1 323 0
 1045 0050 4848     		ldr	r0, .L70+24
 1046 0052 FFF7FEFF 		bl	uart_print
 1047              	.LVL155:
 298:main.c        ****     
 1048              		.loc 1 298 0
 1049 0056 0025     		movs	r5, #0
 297:main.c        ****     uint8 continuous_errors = 0;
 1050              		.loc 1 297 0
 1051 0058 0026     		movs	r6, #0
 1052              	.LVL156:
 1053              	.L68:
 324:main.c        ****     
 325:main.c        ****     // 主循环 - 连续测量距离
 326:main.c        ****     for(;;)
 327:main.c        ****     {
 328:main.c        ****         distance = vl6180x_read_distance();
 1054              		.loc 1 328 0
 1055 005a FFF7FEFF 		bl	vl6180x_read_distance
 1056              	.LVL157:
 1057 005e 0400     		movs	r4, r0
 1058 0060 0700     		movs	r7, r0
 1059              	.LVL158:
 329:main.c        ****         measurement_count++;
 1060              		.loc 1 329 0
 1061 0062 0136     		adds	r6, r6, #1
 1062              	.LVL159:
 1063 0064 B6B2     		uxth	r6, r6
 1064              	.LVL160:
 330:main.c        ****         
 331:main.c        ****         // 显示测量序号
 332:main.c        ****         if((measurement_count % 10) == 1) {
 1065              		.loc 1 332 0
 1066 0066 0A21     		movs	r1, #10
 1067 0068 3000     		movs	r0, r6
 1068 006a FFF7FEFF 		bl	__aeabi_uidivmod
 1069              	.LVL161:
 1070 006e 89B2     		uxth	r1, r1
 1071 0070 0129     		cmp	r1, #1
 1072 0072 0DD1     		bne	.L55
 333:main.c        ****             uart_print("\r\n--- Measurement Block ");
 1073              		.loc 1 333 0
 1074 0074 4048     		ldr	r0, .L70+28
 1075 0076 FFF7FEFF 		bl	uart_print
 1076              	.LVL162:
 334:main.c        ****             uart_print_number(measurement_count / 10 + 1);
 1077              		.loc 1 334 0
 1078 007a 0A21     		movs	r1, #10
 1079 007c 3000     		movs	r0, r6
 1080 007e FFF7FEFF 		bl	__aeabi_uidiv
 1081              	.LVL163:
 1082 0082 0130     		adds	r0, r0, #1
 1083 0084 80B2     		uxth	r0, r0
 1084 0086 FFF7FEFF 		bl	uart_print_number
 1085              	.LVL164:
 335:main.c        ****             uart_print(" ---\r\n");
 1086              		.loc 1 335 0
ARM GAS  C:\Users\12548\AppData\Local\Temp\ccPA1h2Z.s 			page 26


 1087 008a 3C48     		ldr	r0, .L70+32
 1088 008c FFF7FEFF 		bl	uart_print
 1089              	.LVL165:
 1090              	.L55:
 336:main.c        ****         }
 337:main.c        ****         
 338:main.c        ****         uart_print("#");
 1091              		.loc 1 338 0
 1092 0090 3B48     		ldr	r0, .L70+36
 1093 0092 FFF7FEFF 		bl	uart_print
 1094              	.LVL166:
 339:main.c        ****         uart_print_number(measurement_count);
 1095              		.loc 1 339 0
 1096 0096 3000     		movs	r0, r6
 1097 0098 FFF7FEFF 		bl	uart_print_number
 1098              	.LVL167:
 340:main.c        ****         uart_print(": ");
 1099              		.loc 1 340 0
 1100 009c 3948     		ldr	r0, .L70+40
 1101 009e FFF7FEFF 		bl	uart_print
 1102              	.LVL168:
 341:main.c        ****         
 342:main.c        ****         if(distance == 0xFF) {
 1103              		.loc 1 342 0
 1104 00a2 FF2F     		cmp	r7, #255
 1105 00a4 05D1     		bne	.L56
 343:main.c        ****             uart_print("Out of range / No target");
 1106              		.loc 1 343 0
 1107 00a6 3848     		ldr	r0, .L70+44
 1108 00a8 FFF7FEFF 		bl	uart_print
 1109              	.LVL169:
 344:main.c        ****             continuous_errors++;
 1110              		.loc 1 344 0
 1111 00ac 0135     		adds	r5, r5, #1
 1112              	.LVL170:
 1113 00ae EDB2     		uxtb	r5, r5
 1114              	.LVL171:
 1115 00b0 44E0     		b	.L57
 1116              	.L56:
 1117              	.LBB2:
 345:main.c        ****         }
 346:main.c        ****         else {
 347:main.c        ****             uart_print_number(distance);
 1118              		.loc 1 347 0
 1119 00b2 A0B2     		uxth	r0, r4
 1120 00b4 FFF7FEFF 		bl	uart_print_number
 1121              	.LVL172:
 348:main.c        ****             uart_print(" mm ");
 1122              		.loc 1 348 0
 1123 00b8 3448     		ldr	r0, .L70+48
 1124 00ba FFF7FEFF 		bl	uart_print
 1125              	.LVL173:
 349:main.c        ****             
 350:main.c        ****             // 距离条形图
 351:main.c        ****             uint8 bars = distance / 10;  // 每10mm一个条
 1126              		.loc 1 351 0
 1127 00be 0A21     		movs	r1, #10
ARM GAS  C:\Users\12548\AppData\Local\Temp\ccPA1h2Z.s 			page 27


 1128 00c0 2000     		movs	r0, r4
 1129 00c2 FFF7FEFF 		bl	__aeabi_uidiv
 1130              	.LVL174:
 1131 00c6 C4B2     		uxtb	r4, r0
 1132              	.LVL175:
 352:main.c        ****             if(bars > 20) bars = 20;
 1133              		.loc 1 352 0
 1134 00c8 142C     		cmp	r4, #20
 1135 00ca 00D9     		bls	.L58
 1136 00cc 1424     		movs	r4, #20
 1137              	.LVL176:
 1138              	.L58:
 353:main.c        ****             
 354:main.c        ****             uart_print("[");
 1139              		.loc 1 354 0
 1140 00ce 3048     		ldr	r0, .L70+52
 1141 00d0 FFF7FEFF 		bl	uart_print
 1142              	.LVL177:
 1143              	.LBB3:
 355:main.c        ****             for(uint8 i = 0; i < bars; i++) {
 1144              		.loc 1 355 0
 1145 00d4 0025     		movs	r5, #0
 1146              	.LVL178:
 1147 00d6 04E0     		b	.L59
 1148              	.LVL179:
 1149              	.L60:
 356:main.c        ****                 uart_print("=");
 1150              		.loc 1 356 0 discriminator 3
 1151 00d8 2E48     		ldr	r0, .L70+56
 1152 00da FFF7FEFF 		bl	uart_print
 1153              	.LVL180:
 355:main.c        ****             for(uint8 i = 0; i < bars; i++) {
 1154              		.loc 1 355 0 discriminator 3
 1155 00de 0135     		adds	r5, r5, #1
 1156              	.LVL181:
 1157 00e0 EDB2     		uxtb	r5, r5
 1158              	.LVL182:
 1159              	.L59:
 355:main.c        ****             for(uint8 i = 0; i < bars; i++) {
 1160              		.loc 1 355 0 is_stmt 0 discriminator 1
 1161 00e2 AC42     		cmp	r4, r5
 1162 00e4 F8D8     		bhi	.L60
 1163 00e6 04E0     		b	.L61
 1164              	.LVL183:
 1165              	.L62:
 1166              	.LBE3:
 1167              	.LBB4:
 357:main.c        ****             }
 358:main.c        ****             for(uint8 i = bars; i < 20; i++) {
 359:main.c        ****                 uart_print(" ");
 1168              		.loc 1 359 0 is_stmt 1 discriminator 3
 1169 00e8 2B48     		ldr	r0, .L70+60
 1170 00ea FFF7FEFF 		bl	uart_print
 1171              	.LVL184:
 358:main.c        ****                 uart_print(" ");
 1172              		.loc 1 358 0 discriminator 3
 1173 00ee 0134     		adds	r4, r4, #1
ARM GAS  C:\Users\12548\AppData\Local\Temp\ccPA1h2Z.s 			page 28


 1174              	.LVL185:
 1175 00f0 E4B2     		uxtb	r4, r4
 1176              	.LVL186:
 1177              	.L61:
 358:main.c        ****                 uart_print(" ");
 1178              		.loc 1 358 0 is_stmt 0 discriminator 1
 1179 00f2 132C     		cmp	r4, #19
 1180 00f4 F8D9     		bls	.L62
 1181              	.LBE4:
 360:main.c        ****             }
 361:main.c        ****             uart_print("]");
 1182              		.loc 1 361 0 is_stmt 1
 1183 00f6 2948     		ldr	r0, .L70+64
 1184 00f8 FFF7FEFF 		bl	uart_print
 1185              	.LVL187:
 362:main.c        ****             
 363:main.c        ****             // 距离判断
 364:main.c        ****             if(distance < 20) {
 1186              		.loc 1 364 0
 1187 00fc 132F     		cmp	r7, #19
 1188 00fe 04D8     		bhi	.L63
 365:main.c        ****                 uart_print(" WARNING: Too close!");
 1189              		.loc 1 365 0
 1190 0100 2748     		ldr	r0, .L70+68
 1191 0102 FFF7FEFF 		bl	uart_print
 1192              	.LVL188:
 366:main.c        ****             }
 367:main.c        ****             else if(distance < 50) {
 368:main.c        ****                 uart_print(" Near");
 369:main.c        ****             }
 370:main.c        ****             else if(distance < 100) {
 371:main.c        ****                 uart_print(" Medium");
 372:main.c        ****             }
 373:main.c        ****             else if(distance < 150) {
 374:main.c        ****                 uart_print(" Far");
 375:main.c        ****             }
 376:main.c        ****             else {
 377:main.c        ****                 uart_print(" Very far");
 378:main.c        ****             }
 379:main.c        ****             
 380:main.c        ****             continuous_errors = 0;
 1193              		.loc 1 380 0
 1194 0106 0025     		movs	r5, #0
 1195              	.LVL189:
 1196 0108 18E0     		b	.L57
 1197              	.LVL190:
 1198              	.L63:
 367:main.c        ****                 uart_print(" Near");
 1199              		.loc 1 367 0
 1200 010a 312F     		cmp	r7, #49
 1201 010c 04D8     		bhi	.L64
 368:main.c        ****             }
 1202              		.loc 1 368 0
 1203 010e 2548     		ldr	r0, .L70+72
 1204 0110 FFF7FEFF 		bl	uart_print
 1205              	.LVL191:
 1206              		.loc 1 380 0
ARM GAS  C:\Users\12548\AppData\Local\Temp\ccPA1h2Z.s 			page 29


 1207 0114 0025     		movs	r5, #0
 1208              	.LVL192:
 1209 0116 11E0     		b	.L57
 1210              	.LVL193:
 1211              	.L64:
 370:main.c        ****                 uart_print(" Medium");
 1212              		.loc 1 370 0
 1213 0118 632F     		cmp	r7, #99
 1214 011a 04D8     		bhi	.L65
 371:main.c        ****             }
 1215              		.loc 1 371 0
 1216 011c 2248     		ldr	r0, .L70+76
 1217 011e FFF7FEFF 		bl	uart_print
 1218              	.LVL194:
 1219              		.loc 1 380 0
 1220 0122 0025     		movs	r5, #0
 1221              	.LVL195:
 1222 0124 0AE0     		b	.L57
 1223              	.LVL196:
 1224              	.L65:
 373:main.c        ****                 uart_print(" Far");
 1225              		.loc 1 373 0
 1226 0126 952F     		cmp	r7, #149
 1227 0128 04D8     		bhi	.L66
 374:main.c        ****             }
 1228              		.loc 1 374 0
 1229 012a 2048     		ldr	r0, .L70+80
 1230 012c FFF7FEFF 		bl	uart_print
 1231              	.LVL197:
 1232              		.loc 1 380 0
 1233 0130 0025     		movs	r5, #0
 1234              	.LVL198:
 1235 0132 03E0     		b	.L57
 1236              	.LVL199:
 1237              	.L66:
 377:main.c        ****             }
 1238              		.loc 1 377 0
 1239 0134 1E48     		ldr	r0, .L70+84
 1240 0136 FFF7FEFF 		bl	uart_print
 1241              	.LVL200:
 1242              		.loc 1 380 0
 1243 013a 0025     		movs	r5, #0
 1244              	.LVL201:
 1245              	.L57:
 1246              	.LBE2:
 381:main.c        ****         }
 382:main.c        ****         
 383:main.c        ****         uart_print("\r\n");
 1247              		.loc 1 383 0
 1248 013c 1D48     		ldr	r0, .L70+88
 1249 013e FFF7FEFF 		bl	uart_print
 1250              	.LVL202:
 384:main.c        ****         
 385:main.c        ****         // 如果连续错误太多，尝试重新初始化
 386:main.c        ****         if(continuous_errors > 10) {
 1251              		.loc 1 386 0
 1252 0142 0A2D     		cmp	r5, #10
ARM GAS  C:\Users\12548\AppData\Local\Temp\ccPA1h2Z.s 			page 30


 1253 0144 05D9     		bls	.L67
 387:main.c        ****             uart_print("\r\nToo many errors, reinitializing...\r\n");
 1254              		.loc 1 387 0
 1255 0146 1C48     		ldr	r0, .L70+92
 1256 0148 FFF7FEFF 		bl	uart_print
 1257              	.LVL203:
 388:main.c        ****             vl6180x_init();
 1258              		.loc 1 388 0
 1259 014c FFF7FEFF 		bl	vl6180x_init
 1260              	.LVL204:
 389:main.c        ****             continuous_errors = 0;
 1261              		.loc 1 389 0
 1262 0150 0025     		movs	r5, #0
 1263              	.LVL205:
 1264              	.L67:
 390:main.c        ****         }
 391:main.c        ****         
 392:main.c        ****         CyDelay(500);  // 500ms测量间隔
 1265              		.loc 1 392 0
 1266 0152 FA20     		movs	r0, #250
 1267 0154 4000     		lsls	r0, r0, #1
 1268 0156 FFF7FEFF 		bl	CyDelay
 1269              	.LVL206:
 393:main.c        ****     }
 1270              		.loc 1 393 0
 1271 015a 7EE7     		b	.L68
 1272              	.L71:
 1273              		.align	2
 1274              	.L70:
 1275 015c 5C020000 		.word	.LC65
 1276 0160 64020000 		.word	.LC67
 1277 0164 8C020000 		.word	.LC69
 1278 0168 B4020000 		.word	.LC71
 1279 016c D4020000 		.word	.LC73
 1280 0170 E8020000 		.word	.LC75
 1281 0174 14030000 		.word	.LC77
 1282 0178 3C030000 		.word	.LC79
 1283 017c 58030000 		.word	.LC81
 1284 0180 60030000 		.word	.LC83
 1285 0184 64030000 		.word	.LC85
 1286 0188 68030000 		.word	.LC87
 1287 018c 84030000 		.word	.LC89
 1288 0190 8C030000 		.word	.LC91
 1289 0194 90030000 		.word	.LC93
 1290 0198 58020000 		.word	.LC63
 1291 019c 94030000 		.word	.LC96
 1292 01a0 98030000 		.word	.LC98
 1293 01a4 B0030000 		.word	.LC100
 1294 01a8 B8030000 		.word	.LC102
 1295 01ac C0030000 		.word	.LC104
 1296 01b0 C8030000 		.word	.LC106
 1297 01b4 7C000000 		.word	.LC18
 1298 01b8 D4030000 		.word	.LC109
 1299              		.cfi_endproc
 1300              	.LFE43:
 1301              		.size	main, .-main
 1302              		.section	.rodata.str1.4,"aMS",%progbits,1
ARM GAS  C:\Users\12548\AppData\Local\Temp\ccPA1h2Z.s 			page 31


 1303              		.align	2
 1304              	.LC0:
 1305 0000 256400   		.ascii	"%d\000"
 1306 0003 00       		.space	1
 1307              	.LC2:
 1308 0004 30782530 		.ascii	"0x%02X\000"
 1308      325800
 1309 000b 00       		.space	1
 1310              	.LC4:
 1311 000c 0D0A3D3D 		.ascii	"\015\012=== VL6180X Initialization ===\015\012\000"
 1311      3D20564C 
 1311      36313830 
 1311      5820496E 
 1311      69746961 
 1312 002f 00       		.space	1
 1313              	.LC6:
 1314 0030 4D6F6465 		.ascii	"Model ID: \000"
 1314      6C204944 
 1314      3A2000
 1315 003b 00       		.space	1
 1316              	.LC8:
 1317 003c 202D2045 		.ascii	" - ERROR: Wrong ID!\015\012\000"
 1317      52524F52 
 1317      3A205772 
 1317      6F6E6720 
 1317      4944210D 
 1318 0052 0000     		.space	2
 1319              	.LC10:
 1320 0054 202D204F 		.ascii	" - OK\015\012\000"
 1320      4B0D0A00 
 1321              	.LC12:
 1322 005c 4D6F6465 		.ascii	"Model Rev: \000"
 1322      6C205265 
 1322      763A2000 
 1323              	.LC14:
 1324 0068 2E00     		.ascii	".\000"
 1325 006a 0000     		.space	2
 1326              	.LC16:
 1327 006c 2C204D6F 		.ascii	", Module Rev: \000"
 1327      64756C65 
 1327      20526576 
 1327      3A2000
 1328 007b 00       		.space	1
 1329              	.LC18:
 1330 007c 0D0A00   		.ascii	"\015\012\000"
 1331 007f 00       		.space	1
 1332              	.LC20:
 1333 0080 46726573 		.ascii	"Fresh boot detected, applying configuration...\015\012"
 1333      6820626F 
 1333      6F742064 
 1333      65746563 
 1333      7465642C 
 1334 00b0 00       		.ascii	"\000"
 1335 00b1 000000   		.space	3
 1336              	.LC22:
 1337 00b4 436F6E66 		.ascii	"Configuration complete\015\012\000"
 1337      69677572 
ARM GAS  C:\Users\12548\AppData\Local\Temp\ccPA1h2Z.s 			page 32


 1337      6174696F 
 1337      6E20636F 
 1337      6D706C65 
 1338 00cd 000000   		.space	3
 1339              	.LC24:
 1340 00d0 416C7265 		.ascii	"Already configured\015\012\000"
 1340      61647920 
 1340      636F6E66 
 1340      69677572 
 1340      65640D0A 
 1341 00e5 000000   		.space	3
 1342              	.LC26:
 1343 00e8 E29C9320 		.ascii	"\342\234\223 Initialization successful\015\012\000"
 1343      496E6974 
 1343      69616C69 
 1343      7A617469 
 1343      6F6E2073 
 1344              	.LC29:
 1345 0108 5B4E6F20 		.ascii	"[No error]\000"
 1345      6572726F 
 1345      725D00
 1346 0113 00       		.space	1
 1347              	.LC31:
 1348 0114 5B564353 		.ascii	"[VCSEL continuity test]\000"
 1348      454C2063 
 1348      6F6E7469 
 1348      6E756974 
 1348      79207465 
 1349              	.LC33:
 1350 012c 5B564353 		.ascii	"[VCSEL watchdog test]\000"
 1350      454C2077 
 1350      61746368 
 1350      646F6720 
 1350      74657374 
 1351 0142 0000     		.space	2
 1352              	.LC35:
 1353 0144 5B564353 		.ascii	"[VCSEL watchdog]\000"
 1353      454C2077 
 1353      61746368 
 1353      646F675D 
 1353      00
 1354 0155 000000   		.space	3
 1355              	.LC37:
 1356 0158 5B504C4C 		.ascii	"[PLL1 lock]\000"
 1356      31206C6F 
 1356      636B5D00 
 1357              	.LC39:
 1358 0164 5B504C4C 		.ascii	"[PLL2 lock]\000"
 1358      32206C6F 
 1358      636B5D00 
 1359              	.LC41:
 1360 0170 5B456172 		.ascii	"[Early convergence estimate]\000"
 1360      6C792063 
 1360      6F6E7665 
 1360      7267656E 
 1360      63652065 
 1361 018d 000000   		.space	3
ARM GAS  C:\Users\12548\AppData\Local\Temp\ccPA1h2Z.s 			page 33


 1362              	.LC43:
 1363 0190 5B4D6178 		.ascii	"[Max convergence]\000"
 1363      20636F6E 
 1363      76657267 
 1363      656E6365 
 1363      5D00
 1364 01a2 0000     		.space	2
 1365              	.LC45:
 1366 01a4 5B4E6F20 		.ascii	"[No target ignore]\000"
 1366      74617267 
 1366      65742069 
 1366      676E6F72 
 1366      655D00
 1367 01b7 00       		.space	1
 1368              	.LC47:
 1369 01b8 5B4D6178 		.ascii	"[Max SNR]\000"
 1369      20534E52 
 1369      5D00
 1370 01c2 0000     		.space	2
 1371              	.LC49:
 1372 01c4 5B526177 		.ascii	"[Raw ranging algo underflow]\000"
 1372      2072616E 
 1372      67696E67 
 1372      20616C67 
 1372      6F20756E 
 1373 01e1 000000   		.space	3
 1374              	.LC51:
 1375 01e4 5B526177 		.ascii	"[Raw ranging algo overflow]\000"
 1375      2072616E 
 1375      67696E67 
 1375      20616C67 
 1375      6F206F76 
 1376              	.LC53:
 1377 0200 5B52616E 		.ascii	"[Ranging algo underflow]\000"
 1377      67696E67 
 1377      20616C67 
 1377      6F20756E 
 1377      64657266 
 1378 0219 000000   		.space	3
 1379              	.LC55:
 1380 021c 5B52616E 		.ascii	"[Ranging algo overflow]\000"
 1380      67696E67 
 1380      20616C67 
 1380      6F206F76 
 1380      6572666C 
 1381              	.LC57:
 1382 0234 5B556E6B 		.ascii	"[Unknown error]\000"
 1382      6E6F776E 
 1382      20657272 
 1382      6F725D00 
 1383              	.LC59:
 1384 0244 54696D65 		.ascii	"Timeout! \000"
 1384      6F757421 
 1384      2000
 1385 024e 0000     		.space	2
 1386              	.LC61:
 1387 0250 4572726F 		.ascii	"Error \000"
ARM GAS  C:\Users\12548\AppData\Local\Temp\ccPA1h2Z.s 			page 34


 1387      722000
 1388 0257 00       		.space	1
 1389              	.LC63:
 1390 0258 2000     		.ascii	" \000"
 1391 025a 0000     		.space	2
 1392              	.LC65:
 1393 025c 0D0A0D0A 		.ascii	"\015\012\015\012\000"
 1393      00
 1394 0261 000000   		.space	3
 1395              	.LC67:
 1396 0264 3D3D3D3D 		.ascii	"=====================================\015\012\000"
 1396      3D3D3D3D 
 1396      3D3D3D3D 
 1396      3D3D3D3D 
 1396      3D3D3D3D 
 1397              	.LC69:
 1398 028c 2020564C 		.ascii	"  VL6180X Distance Sensor Complete  \015\012\000"
 1398      36313830 
 1398      58204469 
 1398      7374616E 
 1398      63652053 
 1399 02b3 00       		.space	1
 1400              	.LC71:
 1401 02b4 0D0AE29C 		.ascii	"\015\012\342\234\227 Initialization failed!\015\012"
 1401      9720496E 
 1401      69746961 
 1401      6C697A61 
 1401      74696F6E 
 1402 02d2 00       		.ascii	"\000"
 1403 02d3 00       		.space	1
 1404              	.LC73:
 1405 02d4 53797374 		.ascii	"System halted.\015\012\000"
 1405      656D2068 
 1405      616C7465 
 1405      642E0D0A 
 1405      00
 1406 02e5 000000   		.space	3
 1407              	.LC75:
 1408 02e8 0D0A3D3D 		.ascii	"\015\012=== Starting Distance Measurements ===\015\012"
 1408      3D205374 
 1408      61727469 
 1408      6E672044 
 1408      69737461 
 1409 0312 00       		.ascii	"\000"
 1410 0313 00       		.space	1
 1411              	.LC77:
 1412 0314 52616E67 		.ascii	"Range: 0-200mm, Updates every 500ms\015\012\015\012"
 1412      653A2030 
 1412      2D323030 
 1412      6D6D2C20 
 1412      55706461 
 1413 033b 00       		.ascii	"\000"
 1414              	.LC79:
 1415 033c 0D0A2D2D 		.ascii	"\015\012--- Measurement Block \000"
 1415      2D204D65 
 1415      61737572 
 1415      656D656E 
ARM GAS  C:\Users\12548\AppData\Local\Temp\ccPA1h2Z.s 			page 35


 1415      7420426C 
 1416 0355 000000   		.space	3
 1417              	.LC81:
 1418 0358 202D2D2D 		.ascii	" ---\015\012\000"
 1418      0D0A00
 1419 035f 00       		.space	1
 1420              	.LC83:
 1421 0360 2300     		.ascii	"#\000"
 1422 0362 0000     		.space	2
 1423              	.LC85:
 1424 0364 3A2000   		.ascii	": \000"
 1425 0367 00       		.space	1
 1426              	.LC87:
 1427 0368 4F757420 		.ascii	"Out of range / No target\000"
 1427      6F662072 
 1427      616E6765 
 1427      202F204E 
 1427      6F207461 
 1428 0381 000000   		.space	3
 1429              	.LC89:
 1430 0384 206D6D20 		.ascii	" mm \000"
 1430      00
 1431 0389 000000   		.space	3
 1432              	.LC91:
 1433 038c 5B00     		.ascii	"[\000"
 1434 038e 0000     		.space	2
 1435              	.LC93:
 1436 0390 3D00     		.ascii	"=\000"
 1437 0392 0000     		.space	2
 1438              	.LC96:
 1439 0394 5D00     		.ascii	"]\000"
 1440 0396 0000     		.space	2
 1441              	.LC98:
 1442 0398 20574152 		.ascii	" WARNING: Too close!\000"
 1442      4E494E47 
 1442      3A20546F 
 1442      6F20636C 
 1442      6F736521 
 1443 03ad 000000   		.space	3
 1444              	.LC100:
 1445 03b0 204E6561 		.ascii	" Near\000"
 1445      7200
 1446 03b6 0000     		.space	2
 1447              	.LC102:
 1448 03b8 204D6564 		.ascii	" Medium\000"
 1448      69756D00 
 1449              	.LC104:
 1450 03c0 20466172 		.ascii	" Far\000"
 1450      00
 1451 03c5 000000   		.space	3
 1452              	.LC106:
 1453 03c8 20566572 		.ascii	" Very far\000"
 1453      79206661 
 1453      7200
 1454 03d2 0000     		.space	2
 1455              	.LC109:
 1456 03d4 0D0A546F 		.ascii	"\015\012Too many errors, reinitializing...\015\012\000"
ARM GAS  C:\Users\12548\AppData\Local\Temp\ccPA1h2Z.s 			page 36


 1456      6F206D61 
 1456      6E792065 
 1456      72726F72 
 1456      732C2072 
 1457              		.text
 1458              	.Letext0:
 1459              		.file 2 "Generated_Source\\PSoC4/cytypes.h"
 1460              		.file 3 "Generated_Source\\PSoC4/UART_SPI_UART.h"
 1461              		.file 4 "c:\\program files (x86)\\cypress\\psoc creator\\4.4\\psoc creator\\import\\gnu\\arm\\5.4.
 1462              		.file 5 "Generated_Source\\PSoC4/I2C_Distance_I2C.h"
 1463              		.file 6 "Generated_Source\\PSoC4/CyLib.h"
 1464              		.file 7 "Generated_Source\\PSoC4/UART.h"
 1465              		.file 8 "Generated_Source\\PSoC4/I2C_Distance.h"